csympy.core.add
Add
p0
(csympy.core.mul
Mul
p1
(csympy.core.symbol
Symbol
p2
(S'PolynomialVariable'
p3
tp4
Rp5
(dp6
S'_assumptions'
p7
ccopy_reg
_reconstructor
p8
(csympy.core.assumptions
StdFactKB
p9
c__builtin__
dict
p10
(dp11
S'real'
p12
I01
sS'polar'
p13
NsS'commutative'
p14
I01
sS'nonpositive'
p15
NsS'positive'
p16
NsS'negative'
p17
NsS'nonnegative'
p18
NsS'zero'
p19
NsS'complex'
p20
I01
sS'rational'
p21
NsS'hermitian'
p22
I01
sS'nonzero'
p23
NsS'imaginary'
p24
I00
stp25
Rp26
sbg0
(g1
(g2
(S'Num1'
p27
tp28
Rp29
(dp30
g7
g8
(g9
g10
(dp31
g12
I01
sg13
Nsg14
I01
sg16
Nsg17
Nsg22
I01
sg20
I01
sg24
I00
stp32
Rp33
sbcsympy.core.power
Pow
p34
(g2
(S'Den0'
p35
tp36
Rp37
(dp38
g7
g8
(g9
g10
(dp39
g12
I01
sg13
Nsg14
I01
sS'unbounded'
p40
Nsg17
Nsg22
I01
sg20
I01
sg16
Nsg24
I00
stp41
Rp42
sbcsympy.core.numbers
NegativeOne
p43
(tRp44
(dp45
btp46
Rp47
(dp48
btp49
Rp50
(dp51
bg1
(g44
g2
(S'Den1'
p52
tp53
Rp54
(dp55
g7
g8
(g9
g10
(dp56
g12
I01
sg13
Nsg14
I01
sg16
Nsg17
Nsg22
I01
sg20
I01
sS'bounded'
p57
Nsg24
I00
stp58
Rp59
sbg2
(S'Num0'
p60
tp61
Rp62
(dp63
g7
g8
(g9
g10
(dp64
g12
I01
sg13
Nsg14
I01
sg16
Nsg17
Nsg22
I01
sg20
I01
sg24
I00
stp65
Rp66
sbg34
(g37
csympy.core.numbers
Integer
p67
(I-2
tp68
Rp69
(dp70
btp71
Rp72
(dp73
btp74
Rp75
(dp76
btp77
Rp78
(dp79
btp80
Rp81
(dp82
bg1
(g34
(g5
g67
(I7
tp83
Rp84
(dp85
btp86
Rp87
(dp88
bg0
(g1
(g44
g2
(S'Den4'
p89
tp90
Rp91
(dp92
g7
g8
(g9
g10
(dp93
g12
I01
sg13
Nsg14
I01
sg16
Nsg17
Nsg22
I01
sg20
I01
sg57
Nsg24
I00
stp94
Rp95
sbg2
(S'Num3'
p96
tp97
Rp98
(dp99
g7
g8
(g9
g10
(dp100
g12
I01
sg13
Nsg14
I01
sg16
Nsg17
Nsg22
I01
sg20
I01
sg24
I00
stp101
Rp102
sbg72
tp103
Rp104
(dp105
bg1
(g67
(I2
tp106
Rp107
(dp108
bg54
g2
(S'Den6'
p109
tp110
Rp111
(dp112
g7
g8
(g9
g10
(dp113
g12
I01
sg13
Nsg14
I01
sg16
Nsg17
Nsg22
I01
sg20
I01
sg57
Nsg24
I00
stp114
Rp115
sbg62
g34
(g37
g67
(I-3
tp116
Rp117
(dp118
btp119
Rp120
(dp121
btp122
Rp123
(dp124
bg1
(g44
g2
(S'Den2'
p125
tp126
Rp127
(dp128
g7
g8
(g9
g10
(dp129
g12
I01
sg13
Nsg14
I01
sg16
Nsg17
Nsg22
I01
sg20
I01
sg57
Nsg24
I00
stp130
Rp131
sbg2
(S'Num5'
p132
tp133
Rp134
(dp135
g7
g8
(g9
g10
(dp136
g12
I01
sg13
Nsg14
I01
sg16
Nsg17
Nsg22
I01
sg20
I01
sg24
I00
stp137
Rp138
sbg72
tp139
Rp140
(dp141
bg1
(g29
g34
(g37
g67
(I-7
tp142
Rp143
(dp144
btp145
Rp146
(dp147
bg34
(g54
g67
(I6
tp148
Rp149
(dp150
btp151
Rp152
(dp153
btp154
Rp155
(dp156
bg1
(g44
g2
(S'Den3'
p157
tp158
Rp159
(dp160
g7
g8
(g9
g10
(dp161
g12
I01
sg13
Nsg14
I01
sg16
Nsg17
Nsg22
I01
sg20
I01
sg57
Nsg24
I00
stp162
Rp163
sbg2
(S'Num4'
p164
tp165
Rp166
(dp167
g7
g8
(g9
g10
(dp168
g12
I01
sg13
Nsg14
I01
sg16
Nsg17
Nsg22
I01
sg20
I01
sg24
I00
stp169
Rp170
sbg72
tp171
Rp172
(dp173
bg1
(g67
(I4
tp174
Rp175
(dp176
bg159
g29
g34
(g37
g67
(I-5
tp177
Rp178
(dp179
btp180
Rp181
(dp182
bg34
(g54
g67
(I3
tp183
Rp184
(dp185
btp186
Rp187
(dp188
btp189
Rp190
(dp191
bg1
(g44
g2
(S'Num2'
p192
tp193
Rp194
(dp195
g7
g8
(g9
g10
(dp196
g12
I01
sg13
Nsg14
I01
sg16
Nsg17
Nsg22
I01
sg20
I01
sg24
I00
stp197
Rp198
sbg34
(g37
g67
(I-6
tp199
Rp200
(dp201
btp202
Rp203
(dp204
bg34
(g54
g67
(I5
tp205
Rp206
(dp207
btp208
Rp209
(dp210
btp211
Rp212
(dp213
bg1
(g107
g127
g91
g29
g120
tp214
Rp215
(dp216
bg1
(g44
g54
g2
(S'Num6'
p217
tp218
Rp219
(dp220
g7
g8
(g9
g10
(dp221
g12
I01
sg13
Nsg14
I01
sg16
Nsg17
Nsg22
I01
sg20
I01
sg24
I00
stp222
Rp223
sbg72
tp224
Rp225
(dp226
bg1
(g149
g127
g62
g146
g209
tp227
Rp228
(dp229
bg1
(g44
g62
g34
(g37
g67
(I-8
tp230
Rp231
(dp232
btp233
Rp234
(dp235
bg34
(g54
g84
tp236
Rp237
(dp238
btp239
Rp240
(dp241
bg1
(g117
g127
g98
g34
(g37
g67
(I-4
tp242
Rp243
(dp244
btp245
Rp246
(dp247
bg34
(g54
g107
tp248
Rp249
(dp250
btp251
Rp252
(dp253
bg1
(g67
(I-10
tp254
Rp255
(dp256
bg62
g203
g187
g34
(g127
g107
tp257
Rp258
(dp259
btp260
Rp261
(dp262
bg1
(g134
g120
g249
tp263
Rp264
(dp265
bg1
(g29
g120
g34
(g159
g107
tp266
Rp267
(dp268
btp269
Rp270
(dp271
bg1
(g107
g159
g91
g62
g120
tp272
Rp273
(dp274
bg1
(g44
g111
g29
g72
tp275
Rp276
(dp277
bg1
(g175
g91
g62
g181
g187
tp278
Rp279
(dp280
bg1
(g44
g2
(S'Den5'
p281
tp282
Rp283
(dp284
g7
g8
(g9
g10
(dp285
g12
I01
sg13
Nsg14
I01
sg16
Nsg17
Nsg22
I01
sg20
I01
sg57
Nsg24
I00
stp286
Rp287
sbg194
g72
tp288
Rp289
(dp290
bg1
(g200
g54
g127
g159
g29
g246
tp291
Rp292
(dp293
bg1
(g117
g159
g194
g246
g249
tp294
Rp295
(dp296
bg1
(g2
(S'Num7'
p297
tp298
Rp299
(dp300
g7
g8
(g9
g10
(dp301
g12
I01
sg13
Nsg14
I01
sg16
Nsg17
Nsg22
I01
sg20
I01
sg24
I00
stp302
Rp303
sbg47
tp304
Rp305
(dp306
bg1
(g149
g29
g181
g249
g258
tp307
Rp308
(dp309
bg1
(g44
g166
g246
g187
tp310
Rp311
(dp312
bg1
(g67
(I12
tp313
Rp314
(dp315
bg127
g159
g62
g181
g249
tp316
Rp317
(dp318
bg1
(g107
g54
g91
g194
g120
tp319
Rp320
(dp321
bg1
(g117
g283
g62
g246
g249
tp322
Rp323
(dp324
bg1
(g117
g91
g29
g246
g249
tp325
Rp326
(dp327
bg1
(g107
g54
g283
g29
g120
tp328
Rp329
(dp330
bg1
(g178
g127
g29
g203
g34
(g54
g175
tp331
Rp332
(dp333
btp334
Rp335
(dp336
bg1
(g98
g181
g332
tp337
Rp338
(dp339
bg1
(g117
g159
g62
g246
g258
tp340
Rp341
(dp342
bg1
(g200
g54
g127
g91
g62
g246
tp343
Rp344
(dp345
bg1
(g107
g54
g159
g98
g120
tp346
Rp347
(dp348
bg1
(g107
g127
g159
g194
g120
tp349
Rp350
(dp351
bg1
(g98
g120
g258
tp352
Rp353
(dp354
bg1
(g178
g159
g62
g203
g332
tp355
Rp356
(dp357
bg1
(g44
g2
(S'Den7'
p358
tp359
Rp360
(dp361
g7
g8
(g9
g10
(dp362
g12
I01
sg13
Nsg14
I01
sg16
Nsg17
Nsg22
I01
sg20
I01
sg57
Nsg24
I00
stp363
Rp364
sbg62
g72
tp365
Rp366
(dp367
bg1
(g175
g127
g194
g181
g187
tp368
Rp369
(dp370
bg1
(g175
g54
g62
g181
g34
(g127
g184
tp371
Rp372
(dp373
btp374
Rp375
(dp376
bg1
(g107
g127
g283
g62
g120
tp377
Rp378
(dp379
bg1
(g117
g54
g62
g246
g267
tp380
Rp381
(dp382
bg1
(g44
g29
g246
g372
tp383
Rp384
(dp385
bg1
(g117
g54
g194
g246
g258
tp386
Rp387
(dp388
bg1
(g107
g54
g127
g166
g120
tp389
Rp390
(dp391
btp392
Rp393
(dp394
btp395
Rp396
(dp397
bg1
(g34
(g5
g206
tp398
Rp399
(dp400
bg0
(g1
(g134
g47
tp401
Rp402
(dp403
bg1
(g98
g120
g249
tp404
Rp405
(dp406
bg1
(g44
g194
g246
g187
tp407
Rp408
(dp409
bg1
(g107
g127
g159
g62
g120
tp410
Rp411
(dp412
bg1
(g117
g127
g29
g246
g249
tp413
Rp414
(dp415
bg1
(g44
g127
g98
g72
tp416
Rp417
(dp418
bg1
(g44
g159
g194
g72
tp419
Rp420
(dp421
bg1
(g29
g181
g332
tp422
Rp423
(dp424
bg1
(g117
g54
g62
g246
g258
tp425
Rp426
(dp427
bg1
(g175
g127
g62
g181
g187
tp428
Rp429
(dp430
bg1
(g107
g54
g127
g194
g120
tp431
Rp432
(dp433
bg1
(g44
g91
g29
g72
tp434
Rp435
(dp436
bg1
(g44
g54
g166
g72
tp437
Rp438
(dp439
bg1
(g29
g120
g258
tp440
Rp441
(dp442
bg1
(g117
g159
g62
g246
g249
tp443
Rp444
(dp445
bg1
(g107
g54
g91
g62
g120
tp446
Rp447
(dp448
bg1
(g44
g283
g62
g72
tp449
Rp450
(dp451
bg1
(g107
g54
g159
g29
g120
tp452
Rp453
(dp454
bg1
(g44
g62
g203
g209
tp455
Rp456
(dp457
btp458
Rp459
(dp460
btp461
Rp462
(dp463
bcsympy.series.order
Order
p464
(g34
(g5
g67
(I10
tp465
Rp466
(dp467
btp468
Rp469
(dp470
bg5
tp471
Rp472
(dp473
bg1
(g34
(g5
g184
tp474
Rp475
(dp476
bg0
(g1
(g44
g127
g29
g72
tp477
Rp478
(dp479
bg1
(g44
g54
g194
g72
tp480
Rp481
(dp482
bg1
(g107
g54
g127
g62
g120
tp483
Rp484
(dp485
bg1
(g44
g159
g62
g72
tp486
Rp487
(dp488
bg1
(g29
g120
g249
tp489
Rp490
(dp491
bg1
(g44
g62
g246
g187
tp492
Rp493
(dp494
bg1
(g98
g47
tp495
Rp496
(dp497
btp498
Rp499
(dp500
btp501
Rp502
(dp503
bg1
(g34
(g5
g107
tp504
Rp505
(dp506
bg0
(g1
(g194
g47
tp507
Rp508
(dp509
bg1
(g62
g120
g249
tp510
Rp511
(dp512
bg1
(g44
g127
g62
g72
tp513
Rp514
(dp515
bg1
(g44
g54
g29
g72
tp516
Rp517
(dp518
btp519
Rp520
(dp521
btp522
Rp523
(dp524
bg1
(g34
(g5
g175
tp525
Rp526
(dp527
bg0
(g1
(g44
g91
g62
g72
tp528
Rp529
(dp530
bg1
(g44
g54
g98
g72
tp531
Rp532
(dp533
bg1
(g62
g181
g332
tp534
Rp535
(dp536
bg1
(g117
g127
g62
g246
g249
tp537
Rp538
(dp539
bg1
(g107
g54
g127
g29
g120
tp540
Rp541
(dp542
bg1
(g44
g159
g29
g72
tp543
Rp544
(dp545
bg1
(g166
g47
tp546
Rp547
(dp548
bg1
(g44
g127
g194
g72
tp549
Rp550
(dp551
bg1
(g44
g29
g246
g187
tp552
Rp553
(dp554
bg1
(g62
g120
g258
tp555
Rp556
(dp557
bg1
(g194
g120
g249
tp558
Rp559
(dp560
bg1
(g107
g54
g159
g62
g120
tp561
Rp562
(dp563
btp564
Rp565
(dp566
btp567
Rp568
(dp569
bg1
(g34
(g5
g67
(I8
tp570
Rp571
(dp572
btp573
Rp574
(dp575
bg0
(g1
(g107
g127
g159
g98
g120
tp576
Rp577
(dp578
bg1
(g44
g29
g234
g237
tp579
Rp580
(dp581
bg1
(g44
g134
g246
g187
tp582
Rp583
(dp584
bg1
(g44
g98
g203
g209
tp585
Rp586
(dp587
bg1
(g175
g283
g62
g181
g187
tp588
Rp589
(dp590
bg1
(g314
g127
g91
g62
g181
g249
tp591
Rp592
(dp593
bg1
(g166
g181
g332
tp594
Rp595
(dp596
bg1
(g117
g91
g62
g246
g258
tp597
Rp598
(dp599
bg1
(g44
g111
g194
g72
tp600
Rp601
(dp602
bg1
(g117
g54
g98
g246
g258
tp603
Rp604
(dp605
bg1
(g107
g127
g283
g29
g120
tp606
Rp607
(dp608
bg1
(g107
g54
g283
g194
g120
tp609
Rp610
(dp611
bg1
(g178
g159
g29
g203
g332
tp612
Rp613
(dp614
bg1
(g117
g127
g166
g246
g249
tp615
Rp616
(dp617
bg1
(g178
g127
g194
g203
g332
tp618
Rp619
(dp620
bg1
(g175
g54
g29
g181
g372
tp621
Rp622
(dp623
bg1
(g44
g54
g299
g72
tp624
Rp625
(dp626
bg1
(g44
g360
g29
g72
tp627
Rp628
(dp629
bg1
(g44
g91
g166
g72
tp630
Rp631
(dp632
bg1
(g175
g91
g29
g181
g187
tp633
Rp634
(dp635
bg1
(g67
(I15
tp636
Rp637
(dp638
bg62
g146
g332
g258
tp639
Rp640
(dp641
bg1
(g107
g54
g91
g98
g120
tp642
Rp643
(dp644
bg1
(g107
g159
g283
g62
g120
tp645
Rp646
(dp647
bg1
(g149
g159
g62
g146
g209
tp648
Rp649
(dp650
bg1
(g175
g127
g98
g181
g187
tp651
Rp652
(dp653
bg1
(g62
g34
(g37
g67
(I-9
tp654
Rp655
(dp656
btp657
Rp658
(dp659
bg34
(g54
g571
tp660
Rp661
(dp662
btp663
Rp664
(dp665
bg1
(g255
g29
g203
g187
g258
tp666
Rp667
(dp668
bg1
(g117
g54
g29
g246
g267
tp669
Rp670
(dp671
bg1
(g194
g120
g267
tp672
Rp673
(dp674
bg1
(g200
g54
g127
g159
g194
g246
tp675
Rp676
(dp677
bg1
(g314
g127
g159
g29
g181
g249
tp678
Rp679
(dp680
bg1
(g143
g127
g62
g234
g152
tp681
Rp682
(dp683
bg1
(g200
g54
g159
g91
g62
g246
tp684
Rp685
(dp686
bg1
(g175
g159
g194
g181
g187
tp687
Rp688
(dp689
bg1
(g200
g54
g127
g283
g62
g246
tp690
Rp691
(dp692
bg1
(g166
g120
g258
tp693
Rp694
(dp695
bg1
(g62
g120
g34
(g91
g107
tp696
Rp697
(dp698
btp699
Rp700
(dp701
bg1
(g67
(I-20
tp702
Rp703
(dp704
bg127
g159
g62
g203
g187
tp705
Rp706
(dp707
bg1
(g314
g54
g159
g62
g181
g258
tp708
Rp709
(dp710
bg1
(g107
g54
g127
g134
g120
tp711
Rp712
(dp713
bg1
(g2
(S'Num8'
p714
tp715
Rp716
(dp717
g7
g8
(g9
g10
(dp718
g12
I01
sg13
Nsg14
I01
sg16
Nsg17
Nsg22
I01
sg20
I01
sg24
I00
stp719
Rp720
sbg47
tp721
Rp722
(dp723
bg1
(g117
g91
g194
g246
g249
tp724
Rp725
(dp726
bg1
(g117
g159
g29
g246
g258
tp727
Rp728
(dp729
bg1
(g149
g62
g181
g249
g267
tp730
Rp731
(dp732
bg1
(g107
g54
g360
g62
g120
tp733
Rp734
(dp735
bg1
(g178
g91
g62
g203
g332
tp736
Rp737
(dp738
bg1
(g44
g127
g219
g72
tp739
Rp740
(dp741
bg1
(g107
g159
g91
g29
g120
tp742
Rp743
(dp744
bg1
(g200
g54
g127
g91
g29
g246
tp745
Rp746
(dp747
bg1
(g255
g62
g203
g249
g372
tp748
Rp749
(dp750
bg1
(g117
g127
g62
g246
g267
tp751
Rp752
(dp753
bg1
(g107
g127
g111
g62
g120
tp754
Rp755
(dp756
bg1
(g107
g54
g111
g29
g120
tp757
Rp758
(dp759
bg1
(g44
g283
g98
g72
tp760
Rp761
(dp762
bg1
(g117
g283
g29
g246
g249
tp763
Rp764
(dp765
bg1
(g117
g111
g62
g246
g249
tp766
Rp767
(dp768
bg1
(g44
g159
g134
g72
tp769
Rp770
(dp771
bg1
(g44
g2
(S'Den8'
p772
tp773
Rp774
(dp775
g7
g8
(g9
g10
(dp776
g12
I01
sg13
Nsg14
I01
sg16
Nsg17
Nsg22
I01
sg20
I01
sg57
Nsg24
I00
stp777
Rp778
sbg62
g72
tp779
Rp780
(dp781
bg1
(g149
g127
g29
g146
g209
tp782
Rp783
(dp784
bg1
(g107
g54
g159
g166
g120
tp785
Rp786
(dp787
bg1
(g194
g146
g152
tp788
Rp789
(dp790
bg1
(g117
g159
g98
g246
g249
tp791
Rp792
(dp793
bg1
(g107
g127
g91
g194
g120
tp794
Rp795
(dp796
bg1
(g44
g194
g246
g372
tp797
Rp798
(dp799
bg1
(g219
g120
g249
tp800
Rp801
(dp802
bg1
(g149
g194
g181
g249
g258
tp803
Rp804
(dp805
bg1
(g62
g181
g34
(g127
g175
tp806
Rp807
(dp808
btp809
Rp810
(dp811
btp812
Rp813
(dp814
btp815
Rp816
(dp817
bg1
(g34
(g5
g67
(I9
tp818
Rp819
(dp820
btp821
Rp822
(dp823
bg0
(g1
(g175
g159
g62
g181
g372
tp824
Rp825
(dp826
bg1
(g175
g159
g98
g181
g187
tp827
Rp828
(dp829
bg1
(g107
g127
g283
g194
g120
tp830
Rp831
(dp832
bg1
(g200
g54
g159
g91
g29
g246
tp833
Rp834
(dp835
bg1
(g117
g360
g62
g246
g249
tp836
Rp837
(dp838
bg1
(g44
g360
g194
g72
tp839
Rp840
(dp841
bg1
(g175
g111
g62
g181
g187
tp842
Rp843
(dp844
bg1
(g134
g120
g258
tp845
Rp846
(dp847
bg1
(g44
g98
g246
g372
tp848
Rp849
(dp850
bg1
(g637
g29
g146
g332
g258
tp851
Rp852
(dp853
bg1
(g117
g127
g134
g246
g249
tp854
Rp855
(dp856
bg1
(g44
g159
g219
g72
tp857
Rp858
(dp859
bg1
(g44
g283
g166
g72
tp860
Rp861
(dp862
bg1
(g314
g127
g159
g194
g181
g249
tp863
Rp864
(dp865
bg1
(g200
g54
g127
g111
g62
g246
tp866
Rp867
(dp868
bg1
(g107
g127
g159
g166
g120
tp869
Rp870
(dp871
bg1
(g314
g127
g91
g29
g181
g249
tp872
Rp873
(dp874
bg1
(g117
g54
g62
g246
g697
tp875
Rp876
(dp877
bg1
(g117
g91
g98
g246
g249
tp878
Rp879
(dp880
bg1
(g117
g283
g194
g246
g249
tp881
Rp882
(dp883
bg1
(g107
g54
g360
g29
g120
tp884
Rp885
(dp886
bg1
(g175
g91
g194
g181
g187
tp887
Rp888
(dp889
bg1
(g44
g111
g98
g72
tp890
Rp891
(dp892
bg1
(g200
g127
g159
g91
g62
g246
tp893
Rp894
(dp895
bg1
(g175
g283
g29
g181
g187
tp896
Rp897
(dp898
bg1
(g703
g127
g159
g29
g203
g187
tp899
Rp900
(dp901
bg1
(g44
g62
g34
(g37
g255
tp902
Rp903
(dp904
bg34
(g54
g819
tp905
Rp906
(dp907
btp908
Rp909
(dp910
bg1
(g134
g181
g332
tp911
Rp912
(dp913
bg1
(g67
(I20
tp914
Rp915
(dp916
bg62
g146
g187
g372
tp917
Rp918
(dp919
bg1
(g314
g54
g159
g29
g181
g258
tp920
Rp921
(dp922
bg1
(g29
g181
g807
tp923
Rp924
(dp925
bg1
(g107
g54
g283
g98
g120
tp926
Rp927
(dp928
bg1
(g44
g219
g246
g187
tp929
Rp930
(dp931
bg1
(g107
g159
g111
g62
g120
tp932
Rp933
(dp934
bg1
(g149
g91
g62
g146
g209
tp935
Rp936
(dp937
bg1
(g178
g283
g62
g203
g332
tp938
Rp939
(dp940
bg1
(g703
g127
g91
g62
g203
g187
tp941
Rp942
(dp943
bg1
(g175
g127
g166
g181
g187
tp944
Rp945
(dp946
bg1
(g107
g127
g111
g29
g120
tp947
Rp948
(dp949
bg1
(g107
g54
g111
g194
g120
tp950
Rp951
(dp952
bg1
(g143
g127
g29
g234
g152
tp953
Rp954
(dp955
bg1
(g299
g120
g249
tp956
Rp957
(dp958
bg1
(g117
g127
g29
g246
g267
tp959
Rp960
(dp961
bg1
(g29
g658
g661
tp962
Rp963
(dp964
bg1
(g98
g146
g152
tp965
Rp966
(dp967
bg1
(g107
g127
g91
g98
g120
tp968
Rp969
(dp970
bg1
(g149
g127
g194
g146
g209
tp971
Rp972
(dp973
bg1
(g44
g2
(S'Den9'
p974
tp975
Rp976
(dp977
g7
g8
(g9
g10
(dp978
g12
I01
sg13
Nsg14
I01
sg16
Nsg17
Nsg22
I01
sg20
I01
sg57
Nsg24
I00
stp979
Rp980
sbg62
g72
tp981
Rp982
(dp983
bg1
(g107
g54
g91
g166
g120
tp984
Rp985
(dp986
bg1
(g67
(I30
tp987
Rp988
(dp989
bg127
g159
g62
g146
g332
tp990
Rp991
(dp992
bg1
(g107
g54
g127
g219
g120
tp993
Rp994
(dp995
bg1
(g107
g54
g159
g134
g120
tp996
Rp997
(dp998
bg1
(g117
g159
g166
g246
g249
tp999
Rp1000
(dp1001
bg1
(g117
g91
g29
g246
g258
tp1002
Rp1003
(dp1004
bg1
(g98
g120
g267
tp1005
Rp1006
(dp1007
bg1
(g44
g91
g134
g72
tp1008
Rp1009
(dp1010
bg1
(g255
g29
g203
g249
g372
tp1011
Rp1012
(dp1013
bg1
(g107
g159
g283
g29
g120
tp1014
Rp1015
(dp1016
bg1
(g117
g54
g194
g246
g267
tp1017
Rp1018
(dp1019
bg1
(g149
g98
g181
g249
g258
tp1020
Rp1021
(dp1022
bg1
(g200
g54
g127
g283
g29
g246
tp1023
Rp1024
(dp1025
bg1
(g107
g127
g360
g62
g120
tp1026
Rp1027
(dp1028
bg1
(g67
(I-30
tp1029
Rp1030
(dp1031
bg159
g62
g203
g249
g258
tp1032
Rp1033
(dp1034
bg1
(g44
g194
g234
g237
tp1035
Rp1036
(dp1037
bg1
(g175
g54
g194
g181
g372
tp1038
Rp1039
(dp1040
bg1
(g178
g159
g194
g203
g332
tp1041
Rp1042
(dp1043
bg1
(g178
g91
g29
g203
g332
tp1044
Rp1045
(dp1046
bg1
(g314
g127
g283
g62
g181
g249
tp1047
Rp1048
(dp1049
bg1
(g107
g91
g283
g62
g120
tp1050
Rp1051
(dp1052
bg1
(g149
g29
g181
g249
g267
tp1053
Rp1054
(dp1055
bg1
(g44
g166
g203
g209
tp1056
Rp1057
(dp1058
bg1
(g44
g54
g716
g72
tp1059
Rp1060
(dp1061
bg1
(g107
g54
g774
g62
g120
tp1062
Rp1063
(dp1064
bg1
(g178
g127
g98
g203
g332
tp1065
Rp1066
(dp1067
bg1
(g29
g120
g697
tp1068
Rp1069
(dp1070
bg1
(g67
(I-21
tp1071
Rp1072
(dp1073
bg62
g234
g209
g258
tp1074
Rp1075
(dp1076
bg1
(g314
g159
g91
g62
g181
g249
tp1077
Rp1078
(dp1079
bg1
(g107
g159
g91
g194
g120
tp1080
Rp1081
(dp1082
bg1
(g200
g54
g127
g91
g194
g246
tp1083
Rp1084
(dp1085
bg1
(g117
g159
g194
g246
g258
tp1086
Rp1087
(dp1088
bg1
(g149
g159
g29
g146
g209
tp1089
Rp1090
(dp1091
bg1
(g571
g127
g62
g658
g237
tp1092
Rp1093
(dp1094
bg1
(g44
g62
g246
g34
(g159
g184
tp1095
Rp1096
(dp1097
btp1098
Rp1099
(dp1100
bg1
(g44
g127
g299
g72
tp1101
Rp1102
(dp1103
bg1
(g255
g62
g203
g187
g267
tp1104
Rp1105
(dp1106
bg1
(g2
(S'Num9'
p1107
tp1108
Rp1109
(dp1110
g7
g8
(g9
g10
(dp1111
g12
I01
sg13
Nsg14
I01
sg16
Nsg17
Nsg22
I01
sg20
I01
sg24
I00
stp1112
Rp1113
sbg47
tp1114
Rp1115
(dp1116
bg1
(g200
g54
g159
g283
g62
g246
tp1117
Rp1118
(dp1119
bg1
(g117
g111
g29
g246
g249
tp1120
Rp1121
(dp1122
bg1
(g117
g54
g166
g246
g258
tp1123
Rp1124
(dp1125
bg1
(g314
g54
g91
g62
g181
g258
tp1126
Rp1127
(dp1128
bg1
(g117
g283
g62
g246
g258
tp1129
Rp1130
(dp1131
bg1
(g314
g54
g127
g62
g181
g267
tp1132
Rp1133
(dp1134
bg1
(g200
g54
g127
g159
g98
g246
tp1135
Rp1136
(dp1137
bg1
(g178
g54
g62
g203
g807
tp1138
Rp1139
(dp1140
bg1
(g44
g774
g29
g72
tp1141
Rp1142
(dp1143
bg1
(g143
g159
g62
g234
g152
tp1144
Rp1145
(dp1146
bg1
(g255
g194
g203
g187
g258
tp1147
Rp1148
(dp1149
btp1150
Rp1151
(dp1152
btp1153
Rp1154
(dp1155
bg1
(g62
g47
tp1156
Rp1157
(dp1158
bg1
(g34
(g5
g149
tp1159
Rp1160
(dp1161
bg0
(g1
(g175
g127
g29
g181
g187
tp1162
Rp1163
(dp1164
bg1
(g44
g91
g194
g72
tp1165
Rp1166
(dp1167
bg1
(g117
g54
g29
g246
g258
tp1168
Rp1169
(dp1170
bg1
(g117
g91
g62
g246
g249
tp1171
Rp1172
(dp1173
bg1
(g200
g54
g127
g159
g62
g246
tp1174
Rp1175
(dp1176
bg1
(g44
g283
g29
g72
tp1177
Rp1178
(dp1179
bg1
(g117
g127
g194
g246
g249
tp1180
Rp1181
(dp1182
bg1
(g44
g111
g62
g72
tp1183
Rp1184
(dp1185
bg1
(g194
g120
g258
tp1186
Rp1187
(dp1188
bg1
(g44
g29
g203
g209
tp1189
Rp1190
(dp1191
bg1
(g166
g120
g249
tp1192
Rp1193
(dp1194
bg1
(g62
g146
g152
tp1195
Rp1196
(dp1197
bg1
(g107
g127
g91
g62
g120
tp1198
Rp1199
(dp1200
bg1
(g44
g127
g166
g72
tp1201
Rp1202
(dp1203
bg1
(g178
g127
g62
g203
g332
tp1204
Rp1205
(dp1206
bg1
(g117
g159
g29
g246
g249
tp1207
Rp1208
(dp1209
bg1
(g62
g120
g267
tp1210
Rp1211
(dp1212
bg1
(g194
g181
g332
tp1213
Rp1214
(dp1215
bg1
(g107
g54
g283
g62
g120
tp1216
Rp1217
(dp1218
bg1
(g44
g62
g246
g372
tp1219
Rp1220
(dp1221
bg1
(g107
g54
g127
g98
g120
tp1222
Rp1223
(dp1224
bg1
(g219
g47
tp1225
Rp1226
(dp1227
bg1
(g44
g159
g98
g72
tp1228
Rp1229
(dp1230
bg1
(g149
g62
g181
g249
g258
tp1231
Rp1232
(dp1233
bg1
(g107
g127
g159
g29
g120
tp1234
Rp1235
(dp1236
bg1
(g107
g54
g159
g194
g120
tp1237
Rp1238
(dp1239
bg1
(g107
g54
g91
g29
g120
tp1240
Rp1241
(dp1242
bg1
(g44
g98
g246
g187
tp1243
Rp1244
(dp1245
bg1
(g175
g159
g62
g181
g187
tp1246
Rp1247
(dp1248
bg1
(g44
g54
g134
g72
tp1249
Rp1250
(dp1251
btp1252
Rp1253
(dp1254
btp1255
Rp1256
(dp1257
btp1258
Rp1259
(dp1260
b.