csympy.core.add
Add
p0
(csympy.series.order
Order
p1
(csympy.core.power
Pow
p2
(csympy.core.symbol
Symbol
p3
(S'PolynomialVariable'
p4
tp5
Rp6
(dp7
S'_assumptions'
p8
ccopy_reg
_reconstructor
p9
(csympy.core.assumptions
StdFactKB
p10
c__builtin__
dict
p11
(dp12
S'real'
p13
I01
sS'polar'
p14
NsS'commutative'
p15
I01
sS'nonpositive'
p16
NsS'positive'
p17
NsS'negative'
p18
NsS'nonnegative'
p19
NsS'zero'
p20
NsS'complex'
p21
I01
sS'rational'
p22
NsS'hermitian'
p23
I01
sS'nonzero'
p24
NsS'imaginary'
p25
I00
stp26
Rp27
sbcsympy.core.numbers
Integer
p28
(I12
tp29
Rp30
(dp31
btp32
Rp33
(dp34
bg6
tp35
Rp36
(dp37
bcsympy.core.mul
Mul
p38
(g6
g0
(g38
(g3
(S'Num1'
p39
tp40
Rp41
(dp42
g8
g9
(g10
g11
(dp43
g13
I01
sg14
Nsg15
I01
sg17
Nsg18
Nsg23
I01
sg21
I01
sg25
I00
stp44
Rp45
sbg2
(g3
(S'Den0'
p46
tp47
Rp48
(dp49
g8
g9
(g10
g11
(dp50
g13
I01
sg14
Nsg15
I01
sS'unbounded'
p51
Nsg18
Nsg23
I01
sg21
I01
sg17
Nsg25
I00
stp52
Rp53
sbcsympy.core.numbers
NegativeOne
p54
(tRp55
(dp56
btp57
Rp58
(dp59
btp60
Rp61
(dp62
bg38
(g55
g3
(S'Den1'
p63
tp64
Rp65
(dp66
g8
g9
(g10
g11
(dp67
g13
I01
sg14
Nsg15
I01
sg17
Nsg18
Nsg23
I01
sg21
I01
sS'bounded'
p68
Nsg25
I00
stp69
Rp70
sbg3
(S'Num0'
p71
tp72
Rp73
(dp74
g8
g9
(g10
g11
(dp75
g13
I01
sg14
Nsg15
I01
sg17
Nsg18
Nsg23
I01
sg21
I01
sg25
I00
stp76
Rp77
sbg2
(g48
g28
(I-2
tp78
Rp79
(dp80
btp81
Rp82
(dp83
btp84
Rp85
(dp86
btp87
Rp88
(dp89
btp90
Rp91
(dp92
bg38
(g2
(g6
g28
(I10
tp93
Rp94
(dp95
btp96
Rp97
(dp98
bg0
(g38
(g28
(I2
tp99
Rp100
(dp101
bg3
(S'Den4'
p102
tp103
Rp104
(dp105
g8
g9
(g10
g11
(dp106
g13
I01
sg14
Nsg15
I01
sg17
Nsg18
Nsg23
I01
sg21
I01
sg68
Nsg25
I00
stp107
Rp108
sbg3
(S'Den5'
p109
tp110
Rp111
(dp112
g8
g9
(g10
g11
(dp113
g13
I01
sg14
Nsg15
I01
sg17
Nsg18
Nsg23
I01
sg21
I01
sg68
Nsg25
I00
stp114
Rp115
sbg41
g2
(g48
g28
(I-3
tp116
Rp117
(dp118
btp119
Rp120
(dp121
btp122
Rp123
(dp124
bg38
(g30
g3
(S'Den3'
p125
tp126
Rp127
(dp128
g8
g9
(g10
g11
(dp129
g13
I01
sg14
Nsg15
I01
sg17
Nsg18
Nsg23
I01
sg21
I01
sg68
Nsg25
I00
stp130
Rp131
sbg104
g41
g2
(g48
g28
(I-5
tp132
Rp133
(dp134
btp135
Rp136
(dp137
bg2
(g65
g100
tp138
Rp139
(dp140
btp141
Rp142
(dp143
bg38
(g28
(I4
tp144
Rp145
(dp146
bg65
g73
g136
g2
(g127
g28
(I3
tp147
Rp148
(dp149
btp150
Rp151
(dp152
btp153
Rp154
(dp155
bg38
(g28
(I-6
tp156
Rp157
(dp158
bg65
g3
(S'Den2'
p159
tp160
Rp161
(dp162
g8
g9
(g10
g11
(dp163
g13
I01
sg14
Nsg15
I01
sg17
Nsg18
Nsg23
I01
sg21
I01
sg68
Nsg25
I00
stp164
Rp165
sbg3
(S'Den6'
p166
tp167
Rp168
(dp169
g8
g9
(g10
g11
(dp170
g13
I01
sg14
Nsg15
I01
sg17
Nsg18
Nsg23
I01
sg21
I01
sg68
Nsg25
I00
stp171
Rp172
sbg41
g2
(g48
g28
(I-4
tp173
Rp174
(dp175
btp176
Rp177
(dp178
btp179
Rp180
(dp181
bg38
(g55
g161
g3
(S'Num8'
p182
tp183
Rp184
(dp185
g8
g9
(g10
g11
(dp186
g13
I01
sg14
Nsg15
I01
sg17
Nsg18
Nsg23
I01
sg21
I01
sg25
I00
stp187
Rp188
sbg82
tp189
Rp190
(dp191
bg38
(g28
(I-35
tp192
Rp193
(dp194
bg73
g2
(g48
g28
(I-8
tp195
Rp196
(dp197
btp198
Rp199
(dp200
bg2
(g65
g145
tp201
Rp202
(dp203
bg2
(g161
g148
tp204
Rp205
(dp206
btp207
Rp208
(dp209
bg38
(g55
g104
g3
(S'Num6'
p210
tp211
Rp212
(dp213
g8
g9
(g10
g11
(dp214
g13
I01
sg14
Nsg15
I01
sg17
Nsg18
Nsg23
I01
sg21
I01
sg25
I00
stp215
Rp216
sbg82
tp217
Rp218
(dp219
bg38
(g30
g161
g168
g73
g136
g139
tp220
Rp221
(dp222
bg38
(g28
(I15
tp223
Rp224
(dp225
bg73
g2
(g48
g28
(I-7
tp226
Rp227
(dp228
btp229
Rp230
(dp231
bg202
g2
(g127
g100
tp232
Rp233
(dp234
btp235
Rp236
(dp237
bg38
(g28
(I-30
tp238
Rp239
(dp240
bg104
g73
g2
(g48
g157
tp241
Rp242
(dp243
bg139
g2
(g161
g100
tp244
Rp245
(dp246
btp247
Rp248
(dp249
bg38
(g117
g104
g3
(S'Num2'
p250
tp251
Rp252
(dp253
g8
g9
(g10
g11
(dp254
g13
I01
sg14
Nsg15
I01
sg17
Nsg18
Nsg23
I01
sg21
I01
sg25
I00
stp255
Rp256
sbg177
g245
tp257
Rp258
(dp259
bg38
(g28
(I8
tp260
Rp261
(dp262
bg161
g41
g2
(g48
g28
(I-9
tp263
Rp264
(dp265
btp266
Rp267
(dp268
bg2
(g65
g28
(I7
tp269
Rp270
(dp271
btp272
Rp273
(dp274
btp275
Rp276
(dp277
bg38
(g28
(I6
tp278
Rp279
(dp280
bg252
g136
g139
g233
tp281
Rp282
(dp283
bg38
(g55
g111
g3
(S'Num5'
p284
tp285
Rp286
(dp287
g8
g9
(g10
g11
(dp288
g13
I01
sg14
Nsg15
I01
sg17
Nsg18
Nsg23
I01
sg21
I01
sg25
I00
stp289
Rp290
sbg82
tp291
Rp292
(dp293
bg38
(g117
g168
g252
g177
g139
tp294
Rp295
(dp296
bg38
(g55
g41
g2
(g48
g28
(I-10
tp297
Rp298
(dp299
btp300
Rp301
(dp302
bg2
(g65
g28
(I9
tp303
Rp304
(dp305
btp306
Rp307
(dp308
btp309
Rp310
(dp311
bg38
(g117
g65
g286
g177
g245
tp312
Rp313
(dp314
bg38
(g117
g111
g41
g177
g245
tp315
Rp316
(dp317
bg38
(g28
(I20
tp318
Rp319
(dp320
bg41
g230
g2
(g65
g148
tp321
Rp322
(dp323
bg205
tp324
Rp325
(dp326
bg38
(g73
g2
(g48
g28
(I-11
tp327
Rp328
(dp329
btp330
Rp331
(dp332
bg2
(g65
g94
tp333
Rp334
(dp335
btp336
Rp337
(dp338
bg38
(g117
g104
g3
(S'Num4'
p339
tp340
Rp341
(dp342
g8
g9
(g10
g11
(dp343
g13
I01
sg14
Nsg15
I01
sg17
Nsg18
Nsg23
I01
sg21
I01
sg25
I00
stp344
Rp345
sbg177
g139
tp346
Rp347
(dp348
bg38
(g279
g111
g73
g230
g2
(g65
g28
(I5
tp349
Rp350
(dp351
btp352
Rp353
(dp354
btp355
Rp356
(dp357
bg38
(g133
g161
g341
g242
g202
tp358
Rp359
(dp360
bg38
(g157
g65
g161
g111
g252
g177
tp361
Rp362
(dp363
bg38
(g341
g120
g233
tp364
Rp365
(dp366
bg38
(g55
g73
g242
g2
(g161
g350
tp367
Rp368
(dp369
btp370
Rp371
(dp372
bg38
(g157
g65
g161
g104
g3
(S'Num3'
p373
tp374
Rp375
(dp376
g8
g9
(g10
g11
(dp377
g13
I01
sg14
Nsg15
I01
sg17
Nsg18
Nsg23
I01
sg21
I01
sg25
I00
stp378
Rp379
sbg177
tp380
Rp381
(dp382
bg38
(g30
g161
g104
g252
g136
g139
tp383
Rp384
(dp385
bg38
(g55
g168
g341
g82
tp386
Rp387
(dp388
bg38
(g28
(I-20
tp389
Rp390
(dp391
bg127
g104
g73
g242
g322
tp392
Rp393
(dp394
bg38
(g279
g104
g41
g230
g353
tp395
Rp396
(dp397
bg38
(g117
g168
g73
g177
g245
tp398
Rp399
(dp400
bg38
(g100
g161
g111
g375
g120
tp401
Rp402
(dp403
bg38
(g117
g65
g375
g177
g233
tp404
Rp405
(dp406
bg38
(g100
g65
g3
(S'Den7'
p407
tp408
Rp409
(dp410
g8
g9
(g10
g11
(dp411
g13
I01
sg14
Nsg15
I01
sg17
Nsg18
Nsg23
I01
sg21
I01
sg68
Nsg25
I00
stp412
Rp413
sbg252
g120
tp414
Rp415
(dp416
bg38
(g28
(I-42
tp417
Rp418
(dp419
bg161
g127
g73
g199
g353
tp420
Rp421
(dp422
bg38
(g279
g127
g252
g230
g353
tp423
Rp424
(dp425
bg38
(g100
g127
g104
g375
g120
tp426
Rp427
(dp428
bg38
(g279
g73
g136
g245
g233
tp429
Rp430
(dp431
bg38
(g157
g65
g161
g127
g341
g177
tp432
Rp433
(dp434
bg38
(g279
g73
g136
g139
g2
(g104
g100
tp435
Rp436
(dp437
btp438
Rp439
(dp440
bg38
(g100
g65
g3
(S'Den9'
p441
tp442
Rp443
(dp444
g8
g9
(g10
g11
(dp445
g13
I01
sg14
Nsg15
I01
sg17
Nsg18
Nsg23
I01
sg21
I01
sg68
Nsg25
I00
stp446
Rp447
sbg73
g120
tp448
Rp449
(dp450
bg38
(g224
g252
g230
g202
g245
tp451
Rp452
(dp453
bg38
(g252
g136
g2
(g161
g145
tp454
Rp455
(dp456
btp457
Rp458
(dp459
bg38
(g227
g161
g252
g199
g2
(g65
g279
tp460
Rp461
(dp462
btp463
Rp464
(dp465
bg38
(g261
g127
g73
g267
g273
tp466
Rp467
(dp468
bg38
(g55
g409
g375
g82
tp469
Rp470
(dp471
bg38
(g73
g120
g2
(g111
g100
tp472
Rp473
(dp474
btp475
Rp476
(dp477
bg38
(g100
g161
g409
g41
g120
tp478
Rp479
(dp480
bg38
(g264
g161
g73
g301
g2
(g65
g261
tp481
Rp482
(dp483
btp484
Rp485
(dp486
bg38
(g279
g341
g136
g139
g245
tp487
Rp488
(dp489
bg38
(g100
g104
g168
g73
g120
tp490
Rp491
(dp492
bg38
(g145
g409
g73
g136
g322
tp493
Rp494
(dp495
bg38
(g28
(I-21
tp496
Rp497
(dp498
bg41
g199
g353
g245
tp499
Rp500
(dp501
bg38
(g3
(S'Num10'
p502
tp503
Rp504
(dp505
g8
g9
(g10
g11
(dp506
g13
I01
sg14
Nsg15
I01
sg17
Nsg18
Nsg23
I01
sg21
I01
sg25
I00
stp507
Rp508
sbg58
tp509
Rp510
(dp511
bg38
(g390
g161
g104
g41
g242
g322
tp512
Rp513
(dp514
bg38
(g55
g3
(S'Num7'
p515
tp516
Rp517
(dp518
g8
g9
(g10
g11
(dp519
g13
I01
sg14
Nsg15
I01
sg17
Nsg18
Nsg23
I01
sg21
I01
sg25
I00
stp520
Rp521
sbg177
g322
tp522
Rp523
(dp524
bg38
(g30
g65
g127
g252
g136
g245
tp525
Rp526
(dp527
bg38
(g227
g104
g73
g199
g461
tp528
Rp529
(dp530
bg38
(g117
g3
(S'Den8'
p531
tp532
Rp533
(dp534
g8
g9
(g10
g11
(dp535
g13
I01
sg14
Nsg15
I01
sg17
Nsg18
Nsg23
I01
sg21
I01
sg68
Nsg25
I00
stp536
Rp537
sbg73
g177
g139
tp538
Rp539
(dp540
bg38
(g239
g127
g41
g242
g139
g245
tp541
Rp542
(dp543
bg38
(g28
(I60
tp544
Rp545
(dp546
bg127
g73
g230
g322
g245
tp547
Rp548
(dp549
bg38
(g157
g65
g104
g111
g73
g177
tp550
Rp551
(dp552
bg38
(g298
g252
g242
g139
g205
tp553
Rp554
(dp555
bg38
(g117
g127
g286
g177
g139
tp556
Rp557
(dp558
bg38
(g28
(I30
tp559
Rp560
(dp561
bg161
g104
g73
g230
g202
tp562
Rp563
(dp564
bg38
(g133
g127
g375
g242
g202
tp565
Rp566
(dp567
bg38
(g55
g3
(S'Den10'
p568
tp569
Rp570
(dp571
g8
g9
(g10
g11
(dp572
g13
I01
sg14
Nsg15
I01
sg17
Nsg18
Nsg23
I01
sg21
I01
sg68
Nsg25
I00
stp573
Rp574
sbg73
g82
tp575
Rp576
(dp577
bg38
(g100
g161
g127
g286
g120
tp578
Rp579
(dp580
bg38
(g390
g161
g111
g73
g242
g322
tp581
Rp582
(dp583
bg38
(g100
g65
g104
g286
g120
tp584
Rp585
(dp586
bg38
(g100
g65
g168
g375
g120
tp587
Rp588
(dp589
bg38
(g55
g341
g177
g205
tp590
Rp591
(dp592
bg38
(g145
g168
g41
g136
g322
tp593
Rp594
(dp595
bg38
(g100
g127
g111
g252
g120
tp596
Rp597
(dp598
bg38
(g390
g161
g127
g252
g242
g322
tp599
Rp600
(dp601
bg38
(g100
g65
g111
g341
g120
tp602
Rp603
(dp604
bg38
(g30
g161
g127
g375
g136
g139
tp605
Rp606
(dp607
bg38
(g145
g161
g286
g136
g322
tp608
Rp609
(dp610
bg38
(g30
g65
g111
g73
g136
g245
tp611
Rp612
(dp613
bg38
(g55
g286
g242
g353
tp614
Rp615
(dp616
bg38
(g298
g41
g242
g322
g233
tp617
Rp618
(dp619
bg38
(g239
g161
g73
g242
g139
g233
tp620
Rp621
(dp622
bg38
(g133
g104
g252
g242
g202
tp623
Rp624
(dp625
bg38
(g100
g161
g104
g341
g120
tp626
Rp627
(dp628
bg38
(g212
g120
g245
tp629
Rp630
(dp631
bg38
(g30
g161
g111
g41
g136
g139
tp632
Rp633
(dp634
bg38
(g117
g161
g252
g177
g233
tp635
Rp636
(dp637
bg38
(g55
g533
g252
g82
tp638
Rp639
(dp640
bg38
(g30
g65
g104
g41
g136
g245
tp641
Rp642
(dp643
bg38
(g145
g104
g73
g136
g205
tp644
Rp645
(dp646
bg38
(g100
g65
g161
g517
g120
tp647
Rp648
(dp649
bg38
(g28
(I28
tp650
Rp651
(dp652
bg73
g267
g461
g245
tp653
Rp654
(dp655
bg38
(g279
g161
g375
g230
g353
tp656
Rp657
(dp658
bg38
(g117
g111
g375
g177
g139
tp659
Rp660
(dp661
bg38
(g117
g409
g41
g177
g139
tp662
Rp663
(dp664
bg38
(g145
g127
g341
g136
g322
tp665
Rp666
(dp667
bg38
(g100
g127
g168
g41
g120
tp668
Rp669
(dp670
bg38
(g145
g104
g375
g136
g322
tp671
Rp672
(dp673
bg38
(g133
g111
g41
g242
g202
tp674
Rp675
(dp676
bg38
(g117
g161
g212
g177
g139
tp677
Rp678
(dp679
bg38
(g157
g65
g127
g104
g252
g177
tp680
Rp681
(dp682
bg38
(g117
g161
g73
g177
g436
tp683
Rp684
(dp685
bg38
(g100
g127
g409
g73
g120
tp686
Rp687
(dp688
bg38
(g298
g375
g242
g322
g245
tp689
Rp690
(dp691
bg38
(g100
g161
g168
g252
g120
tp692
Rp693
(dp694
bg38
(g252
g120
g436
tp695
Rp696
(dp697
bg38
(g252
g267
g482
tp698
Rp699
(dp700
bg38
(g55
g443
g41
g82
tp701
Rp702
(dp703
bg38
(g157
g65
g127
g111
g41
g177
tp704
Rp705
(dp706
bg38
(g212
g136
g202
tp707
Rp708
(dp709
bg38
(g145
g111
g252
g136
g322
tp710
Rp711
(dp712
bg38
(g117
g65
g41
g177
g436
tp713
Rp714
(dp715
bg38
(g157
g161
g127
g104
g41
g177
tp716
Rp717
(dp718
bg38
(g145
g65
g375
g136
g205
tp719
Rp720
(dp721
bg38
(g157
g65
g127
g168
g73
g177
tp722
Rp723
(dp724
bg38
(g55
g375
g199
g273
tp725
Rp726
(dp727
bg38
(g157
g65
g161
g409
g73
g177
tp728
Rp729
(dp730
bg38
(g55
g41
g177
g151
tp731
Rp732
(dp733
bg38
(g100
g65
g127
g212
g120
tp734
Rp735
(dp736
bg38
(g30
g65
g161
g41
g136
g233
tp737
Rp738
(dp739
bg38
(g100
g65
g533
g41
g120
tp740
Rp741
(dp742
bg38
(g28
(I24
tp743
Rp744
(dp745
bg65
g161
g127
g104
g73
g136
tp746
Rp747
(dp748
bg38
(g157
g161
g127
g111
g73
g177
tp749
Rp750
(dp751
bg38
(g341
g230
g461
tp752
Rp753
(dp754
bg38
(g100
g161
g533
g73
g120
tp755
Rp756
(dp757
bg38
(g145
g127
g41
g136
g205
tp758
Rp759
(dp760
bg38
(g133
g168
g73
g242
g202
tp761
Rp762
(dp763
bg38
(g117
g127
g375
g177
g245
tp764
Rp765
(dp766
bg38
(g55
g127
g517
g82
tp767
Rp768
(dp769
bg38
(g117
g104
g73
g177
g233
tp770
Rp771
(dp772
bg38
(g390
g65
g127
g73
g242
g205
tp773
Rp774
(dp775
bg38
(g133
g65
g41
g242
g455
tp776
Rp777
(dp778
bg38
(g55
g65
g3
(S'Num9'
p779
tp780
Rp781
(dp782
g8
g9
(g10
g11
(dp783
g13
I01
sg14
Nsg15
I01
sg17
Nsg18
Nsg23
I01
sg21
I01
sg25
I00
stp784
Rp785
sbg82
tp786
Rp787
(dp788
bg38
(g560
g161
g127
g41
g230
g202
tp789
Rp790
(dp791
bg38
(g184
g120
g139
tp792
Rp793
(dp794
bg38
(g224
g73
g230
g139
g455
tp795
Rp796
(dp797
bg38
(g30
g127
g111
g73
g136
g139
tp798
Rp799
(dp800
bg38
(g227
g127
g41
g199
g461
tp801
Rp802
(dp803
btp804
Rp805
(dp806
btp807
Rp808
(dp809
bg38
(g2
(g6
g270
tp810
Rp811
(dp812
bg0
(g38
(g55
g104
g375
g82
tp813
Rp814
(dp815
bg38
(g100
g65
g168
g73
g120
tp816
Rp817
(dp818
bg38
(g55
g161
g286
g82
tp819
Rp820
(dp821
bg38
(g41
g230
g461
tp822
Rp823
(dp824
bg38
(g55
g127
g341
g82
tp825
Rp826
(dp827
bg38
(g145
g127
g41
g136
g322
tp828
Rp829
(dp830
bg38
(g55
g252
g242
g353
tp831
Rp832
(dp833
bg38
(g100
g161
g104
g41
g120
tp834
Rp835
(dp836
bg38
(g55
g65
g212
g82
tp837
Rp838
(dp839
bg38
(g279
g161
g73
g230
g353
tp840
Rp841
(dp842
bg38
(g55
g73
g199
g273
tp843
Rp844
(dp845
bg38
(g117
g161
g375
g177
g139
tp846
Rp847
(dp848
bg38
(g298
g73
g242
g322
g245
tp849
Rp850
(dp851
bg38
(g286
g120
g139
tp852
Rp853
(dp854
bg38
(g41
g120
g233
tp855
Rp856
(dp857
bg38
(g100
g127
g104
g73
g120
tp858
Rp859
(dp860
bg38
(g55
g168
g41
g82
tp861
Rp862
(dp863
bg38
(g145
g104
g73
g136
g322
tp864
Rp865
(dp866
bg38
(g55
g111
g252
g82
tp867
Rp868
(dp869
bg38
(g157
g65
g161
g127
g41
g177
tp870
Rp871
(dp872
bg38
(g117
g127
g252
g177
g139
tp873
Rp874
(dp875
bg38
(g517
g58
tp876
Rp877
(dp878
bg38
(g279
g41
g136
g139
g245
tp879
Rp880
(dp881
bg38
(g55
g341
g177
g322
tp882
Rp883
(dp884
bg38
(g30
g161
g127
g73
g136
g139
tp885
Rp886
(dp887
bg38
(g100
g65
g104
g252
g120
tp888
Rp889
(dp890
bg38
(g117
g111
g73
g177
g139
tp891
Rp892
(dp893
bg38
(g117
g104
g41
g177
g139
tp894
Rp895
(dp896
bg38
(g100
g65
g111
g41
g120
tp897
Rp898
(dp899
bg38
(g133
g161
g41
g242
g202
tp900
Rp901
(dp902
bg38
(g375
g136
g202
tp903
Rp904
(dp905
bg38
(g117
g127
g73
g177
g245
tp906
Rp907
(dp908
bg38
(g157
g65
g161
g104
g73
g177
tp909
Rp910
(dp911
bg38
(g100
g65
g127
g375
g120
tp912
Rp913
(dp914
bg38
(g100
g161
g127
g252
g120
tp915
Rp916
(dp917
bg38
(g375
g120
g245
tp918
Rp919
(dp920
bg38
(g133
g127
g73
g242
g202
tp921
Rp922
(dp923
bg38
(g55
g409
g73
g82
tp924
Rp925
(dp926
bg38
(g145
g161
g252
g136
g322
tp927
Rp928
(dp929
bg38
(g145
g65
g73
g136
g205
tp930
Rp931
(dp932
bg38
(g100
g161
g111
g73
g120
tp933
Rp934
(dp935
bg38
(g117
g65
g73
g177
g233
tp936
Rp937
(dp938
bg38
(g55
g41
g177
g205
tp939
Rp940
(dp941
bg38
(g117
g65
g252
g177
g245
tp942
Rp943
(dp944
bg38
(g100
g65
g161
g341
g120
tp945
Rp946
(dp947
btp948
Rp949
(dp950
btp951
Rp952
(dp953
bg38
(g2
(g6
g350
tp954
Rp955
(dp956
bg0
(g38
(g286
g58
tp957
Rp958
(dp959
bg38
(g375
g120
g139
tp960
Rp961
(dp962
bg38
(g55
g252
g177
g322
tp963
Rp964
(dp965
bg38
(g100
g161
g127
g73
g120
tp966
Rp967
(dp968
bg38
(g117
g161
g41
g177
g139
tp969
Rp970
(dp971
bg38
(g55
g161
g375
g82
tp972
Rp973
(dp974
bg38
(g55
g127
g252
g82
tp975
Rp976
(dp977
bg38
(g41
g136
g202
tp978
Rp979
(dp980
bg38
(g117
g65
g73
g177
g245
tp981
Rp982
(dp983
bg38
(g145
g161
g73
g136
g322
tp984
Rp985
(dp986
bg38
(g100
g65
g161
g252
g120
tp987
Rp988
(dp989
bg38
(g55
g104
g41
g82
tp990
Rp991
(dp992
bg38
(g55
g65
g341
g82
tp993
Rp994
(dp995
bg38
(g41
g120
g245
tp996
Rp997
(dp998
bg38
(g117
g127
g73
g177
g139
tp999
Rp1000
(dp1001
bg38
(g100
g65
g104
g73
g120
tp1002
Rp1003
(dp1004
bg38
(g55
g111
g73
g82
tp1005
Rp1006
(dp1007
bg38
(g100
g65
g127
g41
g120
tp1008
Rp1009
(dp1010
bg38
(g55
g73
g242
g353
tp1011
Rp1012
(dp1013
btp1014
Rp1015
(dp1016
btp1017
Rp1018
(dp1019
bg38
(g2
(g6
g28
(I11
tp1020
Rp1021
(dp1022
btp1023
Rp1024
(dp1025
bg0
(g38
(g651
g41
g267
g461
g245
tp1026
Rp1027
(dp1028
bg38
(g193
g41
g199
g202
g205
tp1029
Rp1030
(dp1031
bg38
(g100
g161
g104
g286
g120
tp1032
Rp1033
(dp1034
bg38
(g28
(I56
tp1035
Rp1036
(dp1037
bg73
g267
g353
g205
tp1038
Rp1039
(dp1040
bg38
(g30
g65
g104
g252
g136
g245
tp1041
Rp1042
(dp1043
bg38
(g30
g65
g161
g73
g136
g436
tp1044
Rp1045
(dp1046
bg38
(g117
g111
g73
g177
g233
tp1047
Rp1048
(dp1049
bg38
(g375
g120
g436
tp1050
Rp1051
(dp1052
bg38
(g224
g375
g230
g202
g245
tp1053
Rp1054
(dp1055
bg38
(g100
g127
g168
g252
g120
tp1056
Rp1057
(dp1058
bg38
(g100
g161
g443
g73
g120
tp1059
Rp1060
(dp1061
bg38
(g117
g409
g252
g177
g139
tp1062
Rp1063
(dp1064
bg38
(g390
g127
g104
g41
g242
g322
tp1065
Rp1066
(dp1067
bg38
(g145
g111
g73
g136
g205
tp1068
Rp1069
(dp1070
bg38
(g517
g136
g202
tp1071
Rp1072
(dp1073
bg38
(g227
g111
g73
g199
g461
tp1074
Rp1075
(dp1076
bg38
(g517
g120
g245
tp1077
Rp1078
(dp1079
bg38
(g100
g161
g127
g212
g120
tp1080
Rp1081
(dp1082
bg38
(g133
g65
g252
g242
g455
tp1083
Rp1084
(dp1085
bg38
(g390
g65
g104
g73
g242
g205
tp1086
Rp1087
(dp1088
bg38
(g117
g168
g375
g177
g139
tp1089
Rp1090
(dp1091
bg38
(g55
g252
g301
g307
tp1092
Rp1093
(dp1094
bg38
(g145
g168
g252
g136
g322
tp1095
Rp1096
(dp1097
bg38
(g55
g41
g242
g368
tp1098
Rp1099
(dp1100
bg38
(g264
g161
g41
g301
g482
tp1101
Rp1102
(dp1103
bg38
(g100
g161
g111
g341
g120
tp1104
Rp1105
(dp1106
bg38
(g560
g161
g111
g73
g230
g202
tp1107
Rp1108
(dp1109
bg38
(g117
g127
g73
g177
g436
tp1110
Rp1111
(dp1112
bg38
(g133
g111
g252
g242
g202
tp1113
Rp1114
(dp1115
bg38
(g100
g104
g168
g41
g120
tp1116
Rp1117
(dp1118
bg38
(g286
g230
g461
tp1119
Rp1120
(dp1121
bg38
(g390
g161
g127
g375
g242
g322
tp1122
Rp1123
(dp1124
bg38
(g117
g104
g286
g177
g139
tp1125
Rp1126
(dp1127
bg38
(g145
g111
g375
g136
g322
tp1128
Rp1129
(dp1130
bg38
(g319
g252
g230
g322
g205
tp1131
Rp1132
(dp1133
bg38
(g55
g161
g781
g82
tp1134
Rp1135
(dp1136
bg38
(g145
g104
g341
g136
g322
tp1137
Rp1138
(dp1139
bg38
(g157
g65
g127
g104
g375
g177
tp1140
Rp1141
(dp1142
bg38
(g55
g3
(S'Den11'
p1143
tp1144
Rp1145
(dp1146
g8
g9
(g10
g11
(dp1147
g13
I01
sg14
Nsg15
I01
sg17
Nsg18
Nsg23
I01
sg21
I01
sg68
Nsg25
I00
stp1148
Rp1149
sbg73
g82
tp1150
Rp1151
(dp1152
bg38
(g560
g161
g104
g41
g230
g202
tp1153
Rp1154
(dp1155
bg38
(g133
g104
g375
g242
g202
tp1156
Rp1157
(dp1158
bg38
(g100
g65
g127
g517
g120
tp1159
Rp1160
(dp1161
bg38
(g30
g161
g104
g375
g136
g139
tp1162
Rp1163
(dp1164
bg38
(g545
g127
g73
g230
g139
g205
tp1165
Rp1166
(dp1167
bg38
(g100
g65
g409
g375
g120
tp1168
Rp1169
(dp1170
bg38
(g117
g168
g41
g177
g245
tp1171
Rp1172
(dp1173
bg38
(g30
g65
g127
g375
g136
g245
tp1174
Rp1175
(dp1176
bg38
(g145
g409
g41
g136
g322
tp1177
Rp1178
(dp1179
bg38
(g55
g127
g184
g82
tp1180
Rp1181
(dp1182
bg38
(g30
g161
g168
g41
g136
g139
tp1183
Rp1184
(dp1185
bg38
(g298
g252
g242
g322
g233
tp1186
Rp1187
(dp1188
bg38
(g100
g111
g168
g73
g120
tp1189
Rp1190
(dp1191
bg38
(g145
g161
g73
g136
g151
tp1192
Rp1193
(dp1194
bg38
(g279
g127
g375
g230
g353
tp1195
Rp1196
(dp1197
bg38
(g157
g65
g161
g533
g73
g177
tp1198
Rp1199
(dp1200
bg38
(g55
g73
g2
(g48
g28
(I-12
tp1201
Rp1202
(dp1203
btp1204
Rp1205
(dp1206
bg2
(g65
g1021
tp1207
Rp1208
(dp1209
btp1210
Rp1211
(dp1212
bg38
(g157
g65
g161
g127
g286
g177
tp1213
Rp1214
(dp1215
bg38
(g30
g65
g104
g73
g136
g233
tp1216
Rp1217
(dp1218
bg38
(g227
g127
g252
g199
g461
tp1219
Rp1220
(dp1221
bg38
(g28
(I-36
tp1222
Rp1223
(dp1224
bg73
g301
g273
g245
tp1225
Rp1226
(dp1227
bg38
(g55
g341
g199
g273
tp1228
Rp1229
(dp1230
bg38
(g30
g65
g168
g73
g136
g245
tp1231
Rp1232
(dp1233
bg38
(g298
g341
g242
g322
g245
tp1234
Rp1235
(dp1236
bg38
(g100
g65
g111
g286
g120
tp1237
Rp1238
(dp1239
bg38
(g117
g104
g375
g177
g245
tp1240
Rp1241
(dp1242
bg38
(g145
g161
g212
g136
g322
tp1243
Rp1244
(dp1245
bg38
(g239
g161
g41
g242
g139
g233
tp1246
Rp1247
(dp1248
bg38
(g30
g161
g409
g73
g136
g139
tp1249
Rp1250
(dp1251
bg38
(g100
g127
g533
g73
g120
tp1252
Rp1253
(dp1254
bg38
(g30
g127
g104
g73
g136
g245
tp1255
Rp1256
(dp1257
bg38
(g279
g65
g73
g230
g368
tp1258
Rp1259
(dp1260
bg38
(g145
g65
g41
g136
g151
tp1261
Rp1262
(dp1263
bg38
(g117
g161
g517
g177
g139
tp1264
Rp1265
(dp1266
bg38
(g55
g533
g375
g82
tp1267
Rp1268
(dp1269
bg38
(g157
g161
g104
g111
g73
g177
tp1270
Rp1271
(dp1272
bg38
(g55
g111
g212
g82
tp1273
Rp1274
(dp1275
bg38
(g100
g104
g409
g73
g120
tp1276
Rp1277
(dp1278
bg38
(g55
g104
g517
g82
tp1279
Rp1280
(dp1281
bg38
(g224
g41
g230
g139
g455
tp1282
Rp1283
(dp1284
bg38
(g41
g331
g334
tp1285
Rp1286
(dp1287
bg38
(g375
g267
g482
tp1288
Rp1289
(dp1290
bg38
(g261
g127
g41
g267
g273
tp1291
Rp1292
(dp1293
bg38
(g1036
g161
g127
g73
g267
g461
tp1294
Rp1295
(dp1296
bg38
(g545
g104
g73
g230
g322
g245
tp1297
Rp1298
(dp1299
bg38
(g145
g127
g252
g136
g205
tp1300
Rp1301
(dp1302
bg38
(g545
g161
g73
g230
g322
g233
tp1303
Rp1304
(dp1305
bg38
(g261
g161
g252
g267
g273
tp1306
Rp1307
(dp1308
bg38
(g55
g184
g177
g322
tp1309
Rp1310
(dp1311
bg38
(g117
g111
g252
g177
g245
tp1312
Rp1313
(dp1314
bg38
(g117
g127
g341
g177
g245
tp1315
Rp1316
(dp1317
bg38
(g239
g104
g41
g242
g139
g245
tp1318
Rp1319
(dp1320
bg38
(g157
g65
g127
g409
g73
g177
tp1321
Rp1322
(dp1323
bg38
(g145
g104
g41
g136
g205
tp1324
Rp1325
(dp1326
bg38
(g227
g104
g41
g199
g461
tp1327
Rp1328
(dp1329
bg38
(g30
g65
g161
g252
g136
g233
tp1330
Rp1331
(dp1332
bg38
(g497
g73
g199
g353
g233
tp1333
Rp1334
(dp1335
bg38
(g390
g161
g111
g41
g242
g322
tp1336
Rp1337
(dp1338
bg38
(g117
g65
g341
g177
g233
tp1339
Rp1340
(dp1341
bg38
(g133
g127
g73
g242
g455
tp1342
Rp1343
(dp1344
bg38
(g30
g127
g111
g41
g136
g139
tp1345
Rp1346
(dp1347
bg38
(g55
g443
g252
g82
tp1348
Rp1349
(dp1350
bg38
(g286
g120
g233
tp1351
Rp1352
(dp1353
bg38
(g390
g65
g127
g41
g242
g205
tp1354
Rp1355
(dp1356
bg38
(g390
g161
g168
g73
g242
g322
tp1357
Rp1358
(dp1359
bg38
(g279
g104
g252
g230
g353
tp1360
Rp1361
(dp1362
bg38
(g30
g127
g168
g73
g136
g139
tp1363
Rp1364
(dp1365
bg38
(g193
g73
g199
g322
g455
tp1366
Rp1367
(dp1368
bg38
(g157
g65
g161
g168
g252
g177
tp1369
Rp1370
(dp1371
bg38
(g560
g127
g104
g73
g230
g202
tp1372
Rp1373
(dp1374
bg38
(g28
(I-60
tp1375
Rp1376
(dp1377
bg161
g127
g104
g73
g242
g139
tp1378
Rp1379
(dp1380
bg38
(g30
g161
g111
g252
g136
g139
tp1381
Rp1382
(dp1383
bg38
(g100
g161
g409
g252
g120
tp1384
Rp1385
(dp1386
bg38
(g100
g65
g533
g252
g120
tp1387
Rp1388
(dp1389
bg38
(g117
g111
g341
g177
g139
tp1390
Rp1391
(dp1392
bg38
(g781
g120
g139
tp1393
Rp1394
(dp1395
bg38
(g117
g65
g212
g177
g245
tp1396
Rp1397
(dp1398
bg38
(g744
g65
g161
g127
g111
g73
g136
tp1399
Rp1400
(dp1401
bg38
(g94
g161
g73
g331
g307
tp1402
Rp1403
(dp1404
bg38
(g145
g533
g73
g136
g322
tp1405
Rp1406
(dp1407
bg38
(g279
g161
g341
g230
g353
tp1408
Rp1409
(dp1410
bg38
(g545
g127
g41
g230
g322
g245
tp1411
Rp1412
(dp1413
bg38
(g239
g127
g252
g242
g139
g245
tp1414
Rp1415
(dp1416
bg38
(g418
g161
g104
g73
g199
g353
tp1417
Rp1418
(dp1419
bg38
(g100
g161
g168
g375
g120
tp1420
Rp1421
(dp1422
bg38
(g157
g161
g127
g104
g252
g177
tp1423
Rp1424
(dp1425
bg38
(g264
g127
g73
g301
g482
tp1426
Rp1427
(dp1428
bg38
(g157
g65
g104
g111
g41
g177
tp1429
Rp1430
(dp1431
bg38
(g55
g252
g177
g151
tp1432
Rp1433
(dp1434
bg38
(g41
g120
g473
tp1435
Rp1436
(dp1437
bg38
(g117
g65
g252
g177
g436
tp1438
Rp1439
(dp1440
bg38
(g418
g161
g127
g41
g199
g353
tp1441
Rp1442
(dp1443
bg38
(g157
g161
g127
g168
g73
g177
tp1444
Rp1445
(dp1446
bg38
(g55
g570
g41
g82
tp1447
Rp1448
(dp1449
bg38
(g145
g127
g286
g136
g322
tp1450
Rp1451
(dp1452
bg38
(g375
g136
g455
tp1453
Rp1454
(dp1455
bg38
(g55
g65
g504
g82
tp1456
Rp1457
(dp1458
bg38
(g157
g65
g127
g168
g41
g177
tp1459
Rp1460
(dp1461
bg38
(g117
g409
g73
g177
g245
tp1462
Rp1463
(dp1464
bg38
(g100
g127
g104
g341
g120
tp1465
Rp1466
(dp1467
bg38
(g157
g65
g161
g111
g375
g177
tp1468
Rp1469
(dp1470
bg38
(g279
g111
g41
g230
g353
tp1471
Rp1472
(dp1473
bg38
(g100
g161
g533
g41
g120
tp1474
Rp1475
(dp1476
bg38
(g30
g127
g104
g252
g136
g139
tp1477
Rp1478
(dp1479
bg38
(g390
g127
g111
g73
g242
g322
tp1480
Rp1481
(dp1482
bg38
(g279
g286
g136
g139
g245
tp1483
Rp1484
(dp1485
bg38
(g298
g73
g242
g139
g151
tp1486
Rp1487
(dp1488
bg38
(g133
g127
g341
g242
g202
tp1489
Rp1490
(dp1491
bg38
(g117
g533
g41
g177
g139
tp1492
Rp1493
(dp1494
bg38
(g133
g409
g73
g242
g202
tp1495
Rp1496
(dp1497
bg38
(g279
g41
g136
g139
g436
tp1498
Rp1499
(dp1500
bg38
(g497
g252
g199
g353
g245
tp1501
Rp1502
(dp1503
bg38
(g100
g104
g111
g252
g120
tp1504
Rp1505
(dp1506
bg38
(g55
g212
g242
g353
tp1507
Rp1508
(dp1509
bg38
(g100
g65
g161
g184
g120
tp1510
Rp1511
(dp1512
bg38
(g261
g104
g73
g267
g273
tp1513
Rp1514
(dp1515
bg38
(g100
g65
g168
g341
g120
tp1516
Rp1517
(dp1518
bg38
(g30
g161
g127
g341
g136
g139
tp1519
Rp1520
(dp1521
bg38
(g224
g41
g230
g202
g233
tp1522
Rp1523
(dp1524
bg38
(g227
g161
g375
g199
g461
tp1525
Rp1526
(dp1527
bg38
(g100
g127
g409
g41
g120
tp1528
Rp1529
(dp1530
bg38
(g117
g104
g41
g177
g233
tp1531
Rp1532
(dp1533
bg38
(g298
g73
g242
g322
g436
tp1534
Rp1535
(dp1536
bg38
(g279
g41
g136
g245
g233
tp1537
Rp1538
(dp1539
bg38
(g239
g65
g73
g242
g245
g233
tp1540
Rp1541
(dp1542
bg38
(g28
(I-105
tp1543
Rp1544
(dp1545
bg127
g73
g199
g202
g245
tp1546
Rp1547
(dp1548
bg38
(g145
g65
g341
g136
g205
tp1549
Rp1550
(dp1551
bg38
(g279
g375
g136
g139
g233
tp1552
Rp1553
(dp1554
bg38
(g117
g65
g73
g177
g473
tp1555
Rp1556
(dp1557
bg38
(g157
g161
g127
g111
g41
g177
tp1558
Rp1559
(dp1560
bg38
(g117
g443
g73
g177
g139
tp1561
Rp1562
(dp1563
bg38
(g55
g168
g286
g82
tp1564
Rp1565
(dp1566
bg38
(g3
(S'Num11'
p1567
tp1568
Rp1569
(dp1570
g8
g9
(g10
g11
(dp1571
g13
I01
sg14
Nsg15
I01
sg17
Nsg18
Nsg23
I01
sg21
I01
sg25
I00
stp1572
Rp1573
sbg58
tp1574
Rp1575
(dp1576
bg38
(g117
g161
g375
g177
g233
tp1577
Rp1578
(dp1579
bg38
(g157
g65
g161
g409
g41
g177
tp1580
Rp1581
(dp1582
bg38
(g30
g65
g111
g41
g136
g245
tp1583
Rp1584
(dp1585
bg38
(g100
g65
g570
g73
g120
tp1586
Rp1587
(dp1588
bg38
(g100
g65
g104
g212
g120
tp1589
Rp1590
(dp1591
bg38
(g157
g65
g104
g168
g73
g177
tp1592
Rp1593
(dp1594
bg38
(g30
g104
g111
g73
g136
g139
tp1595
Rp1596
(dp1597
bg38
(g279
g168
g73
g230
g353
tp1598
Rp1599
(dp1600
bg38
(g55
g286
g177
g205
tp1601
Rp1602
(dp1603
bg38
(g239
g111
g73
g242
g139
g245
tp1604
Rp1605
(dp1606
bg38
(g100
g127
g111
g375
g120
tp1607
Rp1608
(dp1609
bg38
(g560
g161
g127
g252
g230
g202
tp1610
Rp1611
(dp1612
bg38
(g744
g65
g161
g127
g104
g41
g136
tp1613
Rp1614
(dp1615
bg38
(g55
g409
g341
g82
tp1616
Rp1617
(dp1618
bg38
(g298
g375
g242
g139
g205
tp1619
Rp1620
(dp1621
bg38
(g117
g127
g212
g177
g139
tp1622
Rp1623
(dp1624
bg38
(g117
g161
g41
g177
g436
tp1625
Rp1626
(dp1627
bg38
(g157
g65
g127
g111
g252
g177
tp1628
Rp1629
(dp1630
bg38
(g157
g65
g161
g104
g341
g177
tp1631
Rp1632
(dp1633
bg38
(g100
g65
g443
g41
g120
tp1634
Rp1635
(dp1636
bg38
(g133
g168
g41
g242
g202
tp1637
Rp1638
(dp1639
bg38
(g390
g161
g104
g252
g242
g322
tp1640
Rp1641
(dp1642
bg38
(g133
g161
g286
g242
g202
tp1643
Rp1644
(dp1645
btp1646
Rp1647
(dp1648
btp1649
Rp1650
(dp1651
bg38
(g2
(g6
g148
tp1652
Rp1653
(dp1654
bg0
(g38
(g55
g161
g41
g82
tp1655
Rp1656
(dp1657
bg38
(g55
g65
g252
g82
tp1658
Rp1659
(dp1660
bg38
(g100
g65
g161
g73
g120
tp1661
Rp1662
(dp1663
bg38
(g55
g127
g73
g82
tp1664
Rp1665
(dp1666
bg38
(g41
g120
g139
tp1667
Rp1668
(dp1669
bg38
(g55
g73
g177
g322
tp1670
Rp1671
(dp1672
bg38
(g375
g58
tp1673
Rp1674
(dp1675
btp1676
Rp1677
(dp1678
btp1679
Rp1680
(dp1681
bg38
(g2
(g6
g100
tp1682
Rp1683
(dp1684
bg0
(g38
(g252
g58
tp1685
Rp1686
(dp1687
bg38
(g73
g120
g139
tp1688
Rp1689
(dp1690
bg38
(g55
g161
g73
g82
tp1691
Rp1692
(dp1693
bg38
(g55
g65
g41
g82
tp1694
Rp1695
(dp1696
btp1697
Rp1698
(dp1699
btp1700
Rp1701
(dp1702
bg38
(g2
(g6
g145
tp1703
Rp1704
(dp1705
bg0
(g38
(g55
g104
g73
g82
tp1706
Rp1707
(dp1708
bg38
(g55
g65
g375
g82
tp1709
Rp1710
(dp1711
bg38
(g73
g136
g202
tp1712
Rp1713
(dp1714
bg38
(g117
g161
g73
g177
g139
tp1715
Rp1716
(dp1717
bg38
(g100
g65
g161
g41
g120
tp1718
Rp1719
(dp1720
bg38
(g55
g127
g41
g82
tp1721
Rp1722
(dp1723
bg38
(g341
g58
tp1724
Rp1725
(dp1726
bg38
(g55
g161
g252
g82
tp1727
Rp1728
(dp1729
bg38
(g55
g41
g177
g322
tp1730
Rp1731
(dp1732
bg38
(g73
g120
g245
tp1733
Rp1734
(dp1735
bg38
(g252
g120
g139
tp1736
Rp1737
(dp1738
bg38
(g100
g65
g127
g73
g120
tp1739
Rp1740
(dp1741
btp1742
Rp1743
(dp1744
btp1745
Rp1746
(dp1747
bg38
(g2
(g6
g261
tp1748
Rp1749
(dp1750
bg0
(g38
(g100
g161
g127
g375
g120
tp1751
Rp1752
(dp1753
bg38
(g55
g41
g199
g273
tp1754
Rp1755
(dp1756
bg38
(g55
g286
g177
g322
tp1757
Rp1758
(dp1759
bg38
(g55
g375
g242
g353
tp1760
Rp1761
(dp1762
bg38
(g145
g111
g73
g136
g322
tp1763
Rp1764
(dp1765
bg38
(g30
g161
g104
g73
g136
g139
tp1766
Rp1767
(dp1768
bg38
(g341
g136
g202
tp1769
Rp1770
(dp1771
bg38
(g117
g104
g73
g177
g245
tp1772
Rp1773
(dp1774
bg38
(g55
g168
g252
g82
tp1775
Rp1776
(dp1777
bg38
(g117
g65
g375
g177
g245
tp1778
Rp1779
(dp1780
bg38
(g100
g161
g111
g41
g120
tp1781
Rp1782
(dp1783
bg38
(g100
g65
g111
g252
g120
tp1784
Rp1785
(dp1786
bg38
(g133
g127
g41
g242
g202
tp1787
Rp1788
(dp1789
bg38
(g117
g161
g341
g177
g139
tp1790
Rp1791
(dp1792
bg38
(g133
g161
g252
g242
g202
tp1793
Rp1794
(dp1795
bg38
(g145
g65
g41
g136
g205
tp1796
Rp1797
(dp1798
bg38
(g55
g65
g517
g82
tp1799
Rp1800
(dp1801
bg38
(g55
g409
g41
g82
tp1802
Rp1803
(dp1804
bg38
(g55
g104
g341
g82
tp1805
Rp1806
(dp1807
bg38
(g145
g104
g41
g136
g322
tp1808
Rp1809
(dp1810
bg38
(g224
g73
g230
g202
g245
tp1811
Rp1812
(dp1813
bg38
(g100
g65
g104
g375
g120
tp1814
Rp1815
(dp1816
bg38
(g100
g127
g111
g73
g120
tp1817
Rp1818
(dp1819
bg38
(g279
g127
g73
g230
g353
tp1820
Rp1821
(dp1822
bg38
(g145
g161
g375
g136
g322
tp1823
Rp1824
(dp1825
bg38
(g73
g267
g482
tp1826
Rp1827
(dp1828
bg38
(g298
g41
g242
g322
g245
tp1829
Rp1830
(dp1831
bg38
(g117
g65
g41
g177
g233
tp1832
Rp1833
(dp1834
bg38
(g252
g120
g233
tp1835
Rp1836
(dp1837
bg38
(g157
g65
g161
g127
g252
g177
tp1838
Rp1839
(dp1840
bg38
(g30
g161
g127
g41
g136
g139
tp1841
Rp1842
(dp1843
bg38
(g227
g161
g73
g199
g461
tp1844
Rp1845
(dp1846
bg38
(g157
g65
g127
g104
g73
g177
tp1847
Rp1848
(dp1849
bg38
(g145
g127
g252
g136
g322
tp1850
Rp1851
(dp1852
bg38
(g157
g65
g161
g111
g73
g177
tp1853
Rp1854
(dp1855
bg38
(g341
g120
g245
tp1856
Rp1857
(dp1858
bg38
(g73
g120
g436
tp1859
Rp1860
(dp1861
bg38
(g390
g161
g127
g73
g242
g322
tp1862
Rp1863
(dp1864
bg38
(g30
g65
g127
g73
g136
g245
tp1865
Rp1866
(dp1867
bg38
(g100
g65
g161
g286
g120
tp1868
Rp1869
(dp1870
bg38
(g184
g58
tp1871
Rp1872
(dp1873
bg38
(g117
g104
g252
g177
g139
tp1874
Rp1875
(dp1876
bg38
(g117
g127
g41
g177
g245
tp1877
Rp1878
(dp1879
bg38
(g279
g73
g136
g139
g233
tp1880
Rp1881
(dp1882
bg38
(g100
g65
g409
g73
g120
tp1883
Rp1884
(dp1885
bg38
(g133
g104
g73
g242
g202
tp1886
Rp1887
(dp1888
bg38
(g55
g161
g212
g82
tp1889
Rp1890
(dp1891
bg38
(g100
g127
g104
g41
g120
tp1892
Rp1893
(dp1894
bg38
(g157
g65
g161
g104
g41
g177
tp1895
Rp1896
(dp1897
bg38
(g298
g73
g242
g139
g205
tp1898
Rp1899
(dp1900
bg38
(g117
g161
g73
g177
g233
tp1901
Rp1902
(dp1903
bg38
(g100
g161
g168
g73
g120
tp1904
Rp1905
(dp1906
bg38
(g100
g65
g168
g41
g120
tp1907
Rp1908
(dp1909
bg38
(g55
g111
g375
g82
tp1910
Rp1911
(dp1912
bg38
(g117
g111
g41
g177
g139
tp1913
Rp1914
(dp1915
bg38
(g117
g168
g73
g177
g139
tp1916
Rp1917
(dp1918
bg38
(g55
g127
g286
g82
tp1919
Rp1920
(dp1921
bg38
(g55
g533
g73
g82
tp1922
Rp1923
(dp1924
bg38
(g279
g161
g41
g230
g353
tp1925
Rp1926
(dp1927
bg38
(g100
g65
g127
g341
g120
tp1928
Rp1929
(dp1930
bg38
(g252
g230
g461
tp1931
Rp1932
(dp1933
bg38
(g117
g127
g375
g177
g139
tp1934
Rp1935
(dp1936
bg38
(g100
g161
g104
g252
g120
tp1937
Rp1938
(dp1939
bg38
(g55
g252
g177
g205
tp1940
Rp1941
(dp1942
bg38
(g212
g120
g139
tp1943
Rp1944
(dp1945
bg38
(g279
g252
g136
g139
g245
tp1946
Rp1947
(dp1948
bg38
(g73
g136
g455
tp1949
Rp1950
(dp1951
btp1952
Rp1953
(dp1954
btp1955
Rp1956
(dp1957
bg38
(g2
(g6
g304
tp1958
Rp1959
(dp1960
bg0
(g38
(g145
g127
g73
g136
g205
tp1961
Rp1962
(dp1963
bg38
(g145
g127
g375
g136
g322
tp1964
Rp1965
(dp1966
bg38
(g100
g161
g111
g252
g120
tp1967
Rp1968
(dp1969
bg38
(g157
g65
g127
g104
g41
g177
tp1970
Rp1971
(dp1972
bg38
(g117
g409
g73
g177
g139
tp1973
Rp1974
(dp1975
bg38
(g55
g409
g252
g82
tp1976
Rp1977
(dp1978
bg38
(g145
g168
g73
g136
g322
tp1979
Rp1980
(dp1981
bg38
(g286
g120
g245
tp1982
Rp1983
(dp1984
bg38
(g55
g375
g177
g205
tp1985
Rp1986
(dp1987
bg38
(g224
g41
g230
g202
g245
tp1988
Rp1989
(dp1990
bg38
(g117
g161
g286
g177
g139
tp1991
Rp1992
(dp1993
bg38
(g55
g127
g212
g82
tp1994
Rp1995
(dp1996
bg38
(g55
g111
g341
g82
tp1997
Rp1998
(dp1999
bg38
(g30
g161
g127
g252
g136
g139
tp2000
Rp2001
(dp2002
bg38
(g157
g65
g161
g168
g73
g177
tp2003
Rp2004
(dp2005
bg38
(g100
g161
g127
g341
g120
tp2006
Rp2007
(dp2008
bg38
(g30
g161
g104
g41
g136
g139
tp2009
Rp2010
(dp2011
bg38
(g117
g65
g73
g177
g436
tp2012
Rp2013
(dp2014
bg38
(g117
g104
g375
g177
g139
tp2015
Rp2016
(dp2017
bg38
(g117
g111
g252
g177
g139
tp2018
Rp2019
(dp2020
bg38
(g100
g65
g409
g41
g120
tp2021
Rp2022
(dp2023
bg38
(g145
g104
g252
g136
g322
tp2024
Rp2025
(dp2026
bg38
(g55
g168
g375
g82
tp2027
Rp2028
(dp2029
bg38
(g157
g161
g127
g104
g73
g177
tp2030
Rp2031
(dp2032
bg38
(g145
g111
g41
g136
g322
tp2033
Rp2034
(dp2035
bg38
(g390
g161
g127
g41
g242
g322
tp2036
Rp2037
(dp2038
bg38
(g55
g73
g301
g307
tp2039
Rp2040
(dp2041
bg38
(g286
g136
g202
tp2042
Rp2043
(dp2044
bg38
(g319
g73
g230
g322
g205
tp2045
Rp2046
(dp2047
bg38
(g30
g65
g127
g41
g136
g245
tp2048
Rp2049
(dp2050
bg38
(g41
g136
g455
tp2051
Rp2052
(dp2053
bg38
(g100
g65
g111
g375
g120
tp2054
Rp2055
(dp2056
bg38
(g55
g212
g177
g322
tp2057
Rp2058
(dp2059
bg38
(g100
g127
g168
g73
g120
tp2060
Rp2061
(dp2062
bg38
(g279
g104
g73
g230
g353
tp2063
Rp2064
(dp2065
bg38
(g133
g111
g73
g242
g202
tp2066
Rp2067
(dp2068
bg38
(g390
g161
g104
g73
g242
g322
tp2069
Rp2070
(dp2071
bg38
(g145
g161
g341
g136
g322
tp2072
Rp2073
(dp2074
bg38
(g100
g161
g168
g41
g120
tp2075
Rp2076
(dp2077
bg38
(g100
g65
g168
g252
g120
tp2078
Rp2079
(dp2080
bg38
(g227
g161
g41
g199
g461
tp2081
Rp2082
(dp2083
bg38
(g517
g120
g139
tp2084
Rp2085
(dp2086
bg38
(g117
g161
g41
g177
g233
tp2087
Rp2088
(dp2089
bg38
(g41
g267
g482
tp2090
Rp2091
(dp2092
bg38
(g375
g230
g461
tp2093
Rp2094
(dp2095
bg38
(g100
g161
g104
g375
g120
tp2096
Rp2097
(dp2098
bg38
(g279
g161
g252
g230
g353
tp2099
Rp2100
(dp2101
bg38
(g55
g443
g73
g82
tp2102
Rp2103
(dp2104
bg38
(g100
g65
g104
g341
g120
tp2105
Rp2106
(dp2107
bg38
(g560
g161
g127
g73
g230
g202
tp2108
Rp2109
(dp2110
bg38
(g100
g65
g161
g212
g120
tp2111
Rp2112
(dp2113
bg38
(g100
g65
g127
g286
g120
tp2114
Rp2115
(dp2116
bg38
(g117
g127
g341
g177
g139
tp2117
Rp2118
(dp2119
bg38
(g117
g104
g41
g177
g245
tp2120
Rp2121
(dp2122
bg38
(g375
g120
g233
tp2123
Rp2124
(dp2125
bg38
(g55
g104
g286
g82
tp2126
Rp2127
(dp2128
bg38
(g298
g41
g242
g139
g205
tp2129
Rp2130
(dp2131
bg38
(g100
g127
g111
g41
g120
tp2132
Rp2133
(dp2134
bg38
(g117
g65
g252
g177
g233
tp2135
Rp2136
(dp2137
bg38
(g279
g375
g136
g139
g245
tp2138
Rp2139
(dp2140
bg38
(g157
g65
g161
g111
g41
g177
tp2141
Rp2142
(dp2143
bg38
(g100
g161
g409
g73
g120
tp2144
Rp2145
(dp2146
bg38
(g239
g127
g73
g242
g139
g245
tp2147
Rp2148
(dp2149
bg38
(g55
g252
g199
g273
tp2150
Rp2151
(dp2152
bg38
(g145
g65
g252
g136
g205
tp2153
Rp2154
(dp2155
bg38
(g133
g127
g252
g242
g202
tp2156
Rp2157
(dp2158
bg38
(g133
g104
g41
g242
g202
tp2159
Rp2160
(dp2161
bg38
(g30
g161
g111
g73
g136
g139
tp2162
Rp2163
(dp2164
bg38
(g100
g104
g111
g73
g120
tp2165
Rp2166
(dp2167
bg38
(g279
g41
g136
g139
g233
tp2168
Rp2169
(dp2170
bg38
(g55
g341
g242
g353
tp2171
Rp2172
(dp2173
bg38
(g55
g65
g184
g82
tp2174
Rp2175
(dp2176
bg38
(g100
g65
g533
g73
g120
tp2177
Rp2178
(dp2179
bg38
(g133
g161
g375
g242
g202
tp2180
Rp2181
(dp2182
bg38
(g41
g120
g436
tp2183
Rp2184
(dp2185
bg38
(g497
g73
g199
g353
g245
tp2186
Rp2187
(dp2188
bg38
(g30
g127
g104
g73
g136
g139
tp2189
Rp2190
(dp2191
bg38
(g100
g127
g104
g252
g120
tp2192
Rp2193
(dp2194
bg38
(g157
g65
g161
g104
g252
g177
tp2195
Rp2196
(dp2197
bg38
(g117
g127
g252
g177
g245
tp2198
Rp2199
(dp2200
bg38
(g279
g127
g41
g230
g353
tp2201
Rp2202
(dp2203
bg38
(g261
g161
g73
g267
g273
tp2204
Rp2205
(dp2206
bg38
(g55
g73
g177
g151
tp2207
Rp2208
(dp2209
bg38
(g55
g161
g517
g82
tp2210
Rp2211
(dp2212
bg38
(g298
g73
g242
g322
g233
tp2213
Rp2214
(dp2215
bg38
(g781
g58
tp2216
Rp2217
(dp2218
bg38
(g157
g65
g127
g111
g73
g177
tp2219
Rp2220
(dp2221
bg38
(g117
g168
g41
g177
g139
tp2222
Rp2223
(dp2224
bg38
(g117
g65
g341
g177
g245
tp2225
Rp2226
(dp2227
bg38
(g30
g65
g104
g73
g136
g245
tp2228
Rp2229
(dp2230
bg38
(g117
g111
g73
g177
g245
tp2231
Rp2232
(dp2233
bg38
(g30
g65
g161
g73
g136
g233
tp2234
Rp2235
(dp2236
bg38
(g157
g65
g161
g127
g375
g177
tp2237
Rp2238
(dp2239
bg38
(g133
g65
g73
g242
g455
tp2240
Rp2241
(dp2242
bg38
(g55
g533
g41
g82
tp2243
Rp2244
(dp2245
bg38
(g227
g127
g73
g199
g461
tp2246
Rp2247
(dp2248
bg38
(g298
g252
g242
g322
g245
tp2249
Rp2250
(dp2251
btp2252
Rp2253
(dp2254
btp2255
Rp2256
(dp2257
bg38
(g73
g58
tp2258
Rp2259
(dp2260
bg38
(g2
(g6
g279
tp2261
Rp2262
(dp2263
bg0
(g38
(g145
g161
g41
g136
g322
tp2264
Rp2265
(dp2266
bg38
(g55
g104
g252
g82
tp2267
Rp2268
(dp2269
bg38
(g117
g65
g41
g177
g245
tp2270
Rp2271
(dp2272
bg38
(g117
g104
g73
g177
g139
tp2273
Rp2274
(dp2275
bg38
(g157
g65
g161
g127
g73
g177
tp2276
Rp2277
(dp2278
bg38
(g55
g111
g41
g82
tp2279
Rp2280
(dp2281
bg38
(g117
g161
g252
g177
g139
tp2282
Rp2283
(dp2284
bg38
(g55
g168
g73
g82
tp2285
Rp2286
(dp2287
bg38
(g252
g120
g245
tp2288
Rp2289
(dp2290
bg38
(g55
g41
g242
g353
tp2291
Rp2292
(dp2293
bg38
(g341
g120
g139
tp2294
Rp2295
(dp2296
bg38
(g73
g230
g461
tp2297
Rp2298
(dp2299
bg38
(g100
g161
g104
g73
g120
tp2300
Rp2301
(dp2302
bg38
(g55
g161
g341
g82
tp2303
Rp2304
(dp2305
bg38
(g133
g161
g73
g242
g202
tp2306
Rp2307
(dp2308
bg38
(g117
g127
g41
g177
g139
tp2309
Rp2310
(dp2311
bg38
(g73
g120
g233
tp2312
Rp2313
(dp2314
bg38
(g252
g136
g202
tp2315
Rp2316
(dp2317
bg38
(g100
g65
g111
g73
g120
tp2318
Rp2319
(dp2320
bg38
(g55
g73
g177
g205
tp2321
Rp2322
(dp2323
bg38
(g100
g65
g161
g375
g120
tp2324
Rp2325
(dp2326
bg38
(g212
g58
tp2327
Rp2328
(dp2329
bg38
(g55
g127
g375
g82
tp2330
Rp2331
(dp2332
bg38
(g279
g73
g136
g139
g245
tp2333
Rp2334
(dp2335
bg38
(g100
g161
g127
g41
g120
tp2336
Rp2337
(dp2338
bg38
(g100
g65
g127
g252
g120
tp2339
Rp2340
(dp2341
bg38
(g100
g65
g104
g41
g120
tp2342
Rp2343
(dp2344
bg38
(g55
g375
g177
g322
tp2345
Rp2346
(dp2347
bg38
(g145
g127
g73
g136
g322
tp2348
Rp2349
(dp2350
bg38
(g55
g65
g286
g82
tp2351
Rp2352
(dp2353
btp2354
Rp2355
(dp2356
btp2357
Rp2358
(dp2359
btp2360
Rp2361
(dp2362
b.