csympy.core.add
Add
p0
(csympy.core.mul
Mul
p1
(csympy.core.symbol
Symbol
p2
(S'PolynomialVariable'
p3
tp4
Rp5
(dp6
S'_assumptions'
p7
ccopy_reg
_reconstructor
p8
(csympy.core.assumptions
StdFactKB
p9
c__builtin__
dict
p10
(dp11
S'real'
p12
I01
sS'polar'
p13
NsS'commutative'
p14
I01
sS'nonpositive'
p15
NsS'positive'
p16
NsS'negative'
p17
NsS'nonnegative'
p18
NsS'zero'
p19
NsS'complex'
p20
I01
sS'rational'
p21
NsS'hermitian'
p22
I01
sS'nonzero'
p23
NsS'imaginary'
p24
I00
stp25
Rp26
sbg0
(g1
(g2
(S'Num1'
p27
tp28
Rp29
(dp30
g7
g8
(g9
g10
(dp31
g12
I01
sg13
Nsg14
I01
sg16
Nsg17
Nsg22
I01
sg20
I01
sg24
I00
stp32
Rp33
sbcsympy.core.power
Pow
p34
(g2
(S'Den0'
p35
tp36
Rp37
(dp38
g7
g8
(g9
g10
(dp39
g12
I01
sg13
Nsg14
I01
sS'unbounded'
p40
Nsg17
Nsg22
I01
sg20
I01
sg16
Nsg24
I00
stp41
Rp42
sbcsympy.core.numbers
NegativeOne
p43
(tRp44
(dp45
btp46
Rp47
(dp48
btp49
Rp50
(dp51
bg1
(g44
g2
(S'Den1'
p52
tp53
Rp54
(dp55
g7
g8
(g9
g10
(dp56
g12
I01
sg13
Nsg14
I01
sg16
Nsg17
Nsg22
I01
sg20
I01
sS'bounded'
p57
Nsg24
I00
stp58
Rp59
sbg2
(S'Num0'
p60
tp61
Rp62
(dp63
g7
g8
(g9
g10
(dp64
g12
I01
sg13
Nsg14
I01
sg16
Nsg17
Nsg22
I01
sg20
I01
sg24
I00
stp65
Rp66
sbg34
(g37
csympy.core.numbers
Integer
p67
(I-2
tp68
Rp69
(dp70
btp71
Rp72
(dp73
btp74
Rp75
(dp76
btp77
Rp78
(dp79
btp80
Rp81
(dp82
bg1
(g34
(g5
g67
(I5
tp83
Rp84
(dp85
btp86
Rp87
(dp88
bg0
(g1
(g2
(S'Num5'
p89
tp90
Rp91
(dp92
g7
g8
(g9
g10
(dp93
g12
I01
sg13
Nsg14
I01
sg16
Nsg17
Nsg22
I01
sg20
I01
sg24
I00
stp94
Rp95
sbg47
tp96
Rp97
(dp98
bg1
(g2
(S'Num3'
p99
tp100
Rp101
(dp102
g7
g8
(g9
g10
(dp103
g12
I01
sg13
Nsg14
I01
sg16
Nsg17
Nsg22
I01
sg20
I01
sg24
I00
stp104
Rp105
sbg34
(g37
g67
(I-3
tp106
Rp107
(dp108
btp109
Rp110
(dp111
bg34
(g54
g67
(I2
tp112
Rp113
(dp114
btp115
Rp116
(dp117
btp118
Rp119
(dp120
bg1
(g44
g2
(S'Num2'
p121
tp122
Rp123
(dp124
g7
g8
(g9
g10
(dp125
g12
I01
sg13
Nsg14
I01
sg16
Nsg17
Nsg22
I01
sg20
I01
sg24
I00
stp126
Rp127
sbg34
(g37
g67
(I-4
tp128
Rp129
(dp130
btp131
Rp132
(dp133
bg34
(g54
g67
(I3
tp134
Rp135
(dp136
btp137
Rp138
(dp139
btp140
Rp141
(dp142
bg1
(g113
g2
(S'Den2'
p143
tp144
Rp145
(dp146
g7
g8
(g9
g10
(dp147
g12
I01
sg13
Nsg14
I01
sg16
Nsg17
Nsg22
I01
sg20
I01
sg57
Nsg24
I00
stp148
Rp149
sbg2
(S'Den3'
p150
tp151
Rp152
(dp153
g7
g8
(g9
g10
(dp154
g12
I01
sg13
Nsg14
I01
sg16
Nsg17
Nsg22
I01
sg20
I01
sg57
Nsg24
I00
stp155
Rp156
sbg62
g110
tp157
Rp158
(dp159
bg1
(g107
g145
g29
g132
g116
tp160
Rp161
(dp162
bg1
(g44
g145
g101
g72
tp163
Rp164
(dp165
bg1
(g44
g152
g123
g72
tp166
Rp167
(dp168
bg1
(g29
g34
(g37
g67
(I-5
tp169
Rp170
(dp171
btp172
Rp173
(dp174
bg34
(g54
g67
(I4
tp175
Rp176
(dp177
btp178
Rp179
(dp180
btp181
Rp182
(dp183
bg1
(g107
g54
g62
g132
g34
(g145
g113
tp184
Rp185
(dp186
btp187
Rp188
(dp189
bg1
(g176
g145
g62
g173
g138
tp190
Rp191
(dp192
bg1
(g113
g54
g145
g123
g110
tp193
Rp194
(dp195
bg1
(g44
g2
(S'Den4'
p196
tp197
Rp198
(dp199
g7
g8
(g9
g10
(dp200
g12
I01
sg13
Nsg14
I01
sg16
Nsg17
Nsg22
I01
sg20
I01
sg57
Nsg24
I00
stp201
Rp202
sbg29
g72
tp203
Rp204
(dp205
bg1
(g44
g54
g2
(S'Num4'
p206
tp207
Rp208
(dp209
g7
g8
(g9
g10
(dp210
g12
I01
sg13
Nsg14
I01
sg16
Nsg17
Nsg22
I01
sg20
I01
sg24
I00
stp211
Rp212
sbg72
tp213
Rp214
(dp215
bg1
(g29
g110
g185
tp216
Rp217
(dp218
bg1
(g107
g152
g62
g132
g116
tp219
Rp220
(dp221
bg1
(g113
g54
g198
g62
g110
tp222
Rp223
(dp224
bg1
(g44
g2
(S'Den5'
p225
tp226
Rp227
(dp228
g7
g8
(g9
g10
(dp229
g12
I01
sg13
Nsg14
I01
sg16
Nsg17
Nsg22
I01
sg20
I01
sg57
Nsg24
I00
stp230
Rp231
sbg62
g72
tp232
Rp233
(dp234
bg1
(g113
g54
g152
g29
g110
tp235
Rp236
(dp237
bg1
(g44
g62
g34
(g37
g67
(I-6
tp238
Rp239
(dp240
btp241
Rp242
(dp243
bg34
(g54
g84
tp244
Rp245
(dp246
btp247
Rp248
(dp249
btp250
Rp251
(dp252
btp253
Rp254
(dp255
bg1
(g34
(g5
g135
tp256
Rp257
(dp258
bg0
(g1
(g44
g145
g29
g72
tp259
Rp260
(dp261
bg1
(g44
g54
g123
g72
tp262
Rp263
(dp264
bg1
(g113
g54
g145
g62
g110
tp265
Rp266
(dp267
bg1
(g44
g152
g62
g72
tp268
Rp269
(dp270
bg1
(g29
g110
g116
tp271
Rp272
(dp273
bg1
(g44
g62
g132
g138
tp274
Rp275
(dp276
bg1
(g101
g47
tp277
Rp278
(dp279
btp280
Rp281
(dp282
btp283
Rp284
(dp285
bg1
(g34
(g5
g113
tp286
Rp287
(dp288
bg0
(g1
(g123
g47
tp289
Rp290
(dp291
bg1
(g62
g110
g116
tp292
Rp293
(dp294
bg1
(g44
g145
g62
g72
tp295
Rp296
(dp297
bg1
(g44
g54
g29
g72
tp298
Rp299
(dp300
btp301
Rp302
(dp303
btp304
Rp305
(dp306
bcsympy.series.order
Order
p307
(g34
(g5
g67
(I6
tp308
Rp309
(dp310
btp311
Rp312
(dp313
bg5
tp314
Rp315
(dp316
bg1
(g34
(g5
g176
tp317
Rp318
(dp319
bg0
(g1
(g44
g198
g62
g72
tp320
Rp321
(dp322
bg1
(g44
g54
g101
g72
tp323
Rp324
(dp325
bg1
(g62
g173
g179
tp326
Rp327
(dp328
bg1
(g107
g145
g62
g132
g116
tp329
Rp330
(dp331
bg1
(g113
g54
g145
g29
g110
tp332
Rp333
(dp334
bg1
(g44
g152
g29
g72
tp335
Rp336
(dp337
bg1
(g208
g47
tp338
Rp339
(dp340
bg1
(g44
g145
g123
g72
tp341
Rp342
(dp343
bg1
(g44
g29
g132
g138
tp344
Rp345
(dp346
bg1
(g62
g110
g185
tp347
Rp348
(dp349
bg1
(g123
g110
g116
tp350
Rp351
(dp352
bg1
(g113
g54
g152
g62
g110
tp353
Rp354
(dp355
btp356
Rp357
(dp358
btp359
Rp360
(dp361
bg1
(g62
g47
tp362
Rp363
(dp364
btp365
Rp366
(dp367
b.