csympy.core.add
Add
p0
(csympy.core.mul
Mul
p1
(csympy.core.symbol
Symbol
p2
(S'PolynomialVariable'
p3
tp4
Rp5
(dp6
S'_assumptions'
p7
ccopy_reg
_reconstructor
p8
(csympy.core.assumptions
StdFactKB
p9
c__builtin__
dict
p10
(dp11
S'real'
p12
I01
sS'polar'
p13
NsS'commutative'
p14
I01
sS'nonpositive'
p15
NsS'positive'
p16
NsS'negative'
p17
NsS'nonnegative'
p18
NsS'zero'
p19
NsS'complex'
p20
I01
sS'rational'
p21
NsS'hermitian'
p22
I01
sS'nonzero'
p23
NsS'imaginary'
p24
I00
stp25
Rp26
sbg0
(g1
(g2
(S'Num1'
p27
tp28
Rp29
(dp30
g7
g8
(g9
g10
(dp31
g12
I01
sg13
Nsg14
I01
sg16
Nsg17
Nsg22
I01
sg20
I01
sg24
I00
stp32
Rp33
sbcsympy.core.power
Pow
p34
(g2
(S'Den0'
p35
tp36
Rp37
(dp38
g7
g8
(g9
g10
(dp39
g12
I01
sg13
Nsg14
I01
sS'unbounded'
p40
Nsg17
Nsg22
I01
sg20
I01
sg16
Nsg24
I00
stp41
Rp42
sbcsympy.core.numbers
NegativeOne
p43
(tRp44
(dp45
btp46
Rp47
(dp48
btp49
Rp50
(dp51
bg1
(g44
g2
(S'Den1'
p52
tp53
Rp54
(dp55
g7
g8
(g9
g10
(dp56
g12
I01
sg13
Nsg14
I01
sg16
Nsg17
Nsg22
I01
sg20
I01
sS'bounded'
p57
Nsg24
I00
stp58
Rp59
sbg2
(S'Num0'
p60
tp61
Rp62
(dp63
g7
g8
(g9
g10
(dp64
g12
I01
sg13
Nsg14
I01
sg16
Nsg17
Nsg22
I01
sg20
I01
sg24
I00
stp65
Rp66
sbg34
(g37
csympy.core.numbers
Integer
p67
(I-2
tp68
Rp69
(dp70
btp71
Rp72
(dp73
btp74
Rp75
(dp76
btp77
Rp78
(dp79
btp80
Rp81
(dp82
bg1
(g34
(g5
g67
(I10
tp83
Rp84
(dp85
btp86
Rp87
(dp88
bg0
(g1
(g67
(I2
tp89
Rp90
(dp91
bg2
(S'Den4'
p92
tp93
Rp94
(dp95
g7
g8
(g9
g10
(dp96
g12
I01
sg13
Nsg14
I01
sg16
Nsg17
Nsg22
I01
sg20
I01
sg57
Nsg24
I00
stp97
Rp98
sbg2
(S'Den5'
p99
tp100
Rp101
(dp102
g7
g8
(g9
g10
(dp103
g12
I01
sg13
Nsg14
I01
sg16
Nsg17
Nsg22
I01
sg20
I01
sg57
Nsg24
I00
stp104
Rp105
sbg29
g34
(g37
g67
(I-3
tp106
Rp107
(dp108
btp109
Rp110
(dp111
btp112
Rp113
(dp114
bg1
(g67
(I12
tp115
Rp116
(dp117
bg2
(S'Den3'
p118
tp119
Rp120
(dp121
g7
g8
(g9
g10
(dp122
g12
I01
sg13
Nsg14
I01
sg16
Nsg17
Nsg22
I01
sg20
I01
sg57
Nsg24
I00
stp123
Rp124
sbg94
g29
g34
(g37
g67
(I-5
tp125
Rp126
(dp127
btp128
Rp129
(dp130
bg34
(g54
g90
tp131
Rp132
(dp133
btp134
Rp135
(dp136
bg1
(g67
(I4
tp137
Rp138
(dp139
bg54
g62
g129
g34
(g120
g67
(I3
tp140
Rp141
(dp142
btp143
Rp144
(dp145
btp146
Rp147
(dp148
bg1
(g67
(I-6
tp149
Rp150
(dp151
bg54
g2
(S'Den2'
p152
tp153
Rp154
(dp155
g7
g8
(g9
g10
(dp156
g12
I01
sg13
Nsg14
I01
sg16
Nsg17
Nsg22
I01
sg20
I01
sg57
Nsg24
I00
stp157
Rp158
sbg2
(S'Den6'
p159
tp160
Rp161
(dp162
g7
g8
(g9
g10
(dp163
g12
I01
sg13
Nsg14
I01
sg16
Nsg17
Nsg22
I01
sg20
I01
sg57
Nsg24
I00
stp164
Rp165
sbg29
g34
(g37
g67
(I-4
tp166
Rp167
(dp168
btp169
Rp170
(dp171
btp172
Rp173
(dp174
bg1
(g44
g154
g2
(S'Num8'
p175
tp176
Rp177
(dp178
g7
g8
(g9
g10
(dp179
g12
I01
sg13
Nsg14
I01
sg16
Nsg17
Nsg22
I01
sg20
I01
sg24
I00
stp180
Rp181
sbg72
tp182
Rp183
(dp184
bg1
(g67
(I-35
tp185
Rp186
(dp187
bg62
g34
(g37
g67
(I-8
tp188
Rp189
(dp190
btp191
Rp192
(dp193
bg34
(g54
g138
tp194
Rp195
(dp196
bg34
(g154
g141
tp197
Rp198
(dp199
btp200
Rp201
(dp202
bg1
(g44
g94
g2
(S'Num6'
p203
tp204
Rp205
(dp206
g7
g8
(g9
g10
(dp207
g12
I01
sg13
Nsg14
I01
sg16
Nsg17
Nsg22
I01
sg20
I01
sg24
I00
stp208
Rp209
sbg72
tp210
Rp211
(dp212
bg1
(g116
g154
g161
g62
g129
g132
tp213
Rp214
(dp215
bg1
(g67
(I15
tp216
Rp217
(dp218
bg62
g34
(g37
g67
(I-7
tp219
Rp220
(dp221
btp222
Rp223
(dp224
bg195
g34
(g120
g90
tp225
Rp226
(dp227
btp228
Rp229
(dp230
bg1
(g67
(I-30
tp231
Rp232
(dp233
bg94
g62
g34
(g37
g150
tp234
Rp235
(dp236
bg132
g34
(g154
g90
tp237
Rp238
(dp239
btp240
Rp241
(dp242
bg1
(g107
g94
g2
(S'Num2'
p243
tp244
Rp245
(dp246
g7
g8
(g9
g10
(dp247
g12
I01
sg13
Nsg14
I01
sg16
Nsg17
Nsg22
I01
sg20
I01
sg24
I00
stp248
Rp249
sbg170
g238
tp250
Rp251
(dp252
bg1
(g67
(I8
tp253
Rp254
(dp255
bg154
g29
g34
(g37
g67
(I-9
tp256
Rp257
(dp258
btp259
Rp260
(dp261
bg34
(g54
g67
(I7
tp262
Rp263
(dp264
btp265
Rp266
(dp267
btp268
Rp269
(dp270
bg1
(g67
(I6
tp271
Rp272
(dp273
bg245
g129
g132
g226
tp274
Rp275
(dp276
bg1
(g44
g101
g2
(S'Num5'
p277
tp278
Rp279
(dp280
g7
g8
(g9
g10
(dp281
g12
I01
sg13
Nsg14
I01
sg16
Nsg17
Nsg22
I01
sg20
I01
sg24
I00
stp282
Rp283
sbg72
tp284
Rp285
(dp286
bg1
(g107
g161
g245
g170
g132
tp287
Rp288
(dp289
bg1
(g44
g29
g34
(g37
g67
(I-10
tp290
Rp291
(dp292
btp293
Rp294
(dp295
bg34
(g54
g67
(I9
tp296
Rp297
(dp298
btp299
Rp300
(dp301
btp302
Rp303
(dp304
bg1
(g107
g54
g279
g170
g238
tp305
Rp306
(dp307
bg1
(g107
g101
g29
g170
g238
tp308
Rp309
(dp310
bg1
(g67
(I20
tp311
Rp312
(dp313
bg29
g223
g34
(g54
g141
tp314
Rp315
(dp316
bg198
tp317
Rp318
(dp319
bg1
(g62
g34
(g37
g67
(I-11
tp320
Rp321
(dp322
btp323
Rp324
(dp325
bg34
(g54
g84
tp326
Rp327
(dp328
btp329
Rp330
(dp331
bg1
(g107
g94
g2
(S'Num4'
p332
tp333
Rp334
(dp335
g7
g8
(g9
g10
(dp336
g12
I01
sg13
Nsg14
I01
sg16
Nsg17
Nsg22
I01
sg20
I01
sg24
I00
stp337
Rp338
sbg170
g132
tp339
Rp340
(dp341
bg1
(g272
g101
g62
g223
g34
(g54
g67
(I5
tp342
Rp343
(dp344
btp345
Rp346
(dp347
btp348
Rp349
(dp350
bg1
(g126
g154
g334
g235
g195
tp351
Rp352
(dp353
bg1
(g150
g54
g154
g101
g245
g170
tp354
Rp355
(dp356
bg1
(g334
g110
g226
tp357
Rp358
(dp359
bg1
(g44
g62
g235
g34
(g154
g343
tp360
Rp361
(dp362
btp363
Rp364
(dp365
bg1
(g150
g54
g154
g94
g2
(S'Num3'
p366
tp367
Rp368
(dp369
g7
g8
(g9
g10
(dp370
g12
I01
sg13
Nsg14
I01
sg16
Nsg17
Nsg22
I01
sg20
I01
sg24
I00
stp371
Rp372
sbg170
tp373
Rp374
(dp375
bg1
(g116
g154
g94
g245
g129
g132
tp376
Rp377
(dp378
bg1
(g44
g161
g334
g72
tp379
Rp380
(dp381
bg1
(g67
(I-20
tp382
Rp383
(dp384
bg120
g94
g62
g235
g315
tp385
Rp386
(dp387
bg1
(g272
g94
g29
g223
g346
tp388
Rp389
(dp390
bg1
(g107
g161
g62
g170
g238
tp391
Rp392
(dp393
bg1
(g90
g154
g101
g368
g110
tp394
Rp395
(dp396
bg1
(g107
g54
g368
g170
g226
tp397
Rp398
(dp399
bg1
(g90
g54
g2
(S'Den7'
p400
tp401
Rp402
(dp403
g7
g8
(g9
g10
(dp404
g12
I01
sg13
Nsg14
I01
sg16
Nsg17
Nsg22
I01
sg20
I01
sg57
Nsg24
I00
stp405
Rp406
sbg245
g110
tp407
Rp408
(dp409
bg1
(g67
(I-42
tp410
Rp411
(dp412
bg154
g120
g62
g192
g346
tp413
Rp414
(dp415
bg1
(g272
g120
g245
g223
g346
tp416
Rp417
(dp418
bg1
(g90
g120
g94
g368
g110
tp419
Rp420
(dp421
bg1
(g272
g62
g129
g238
g226
tp422
Rp423
(dp424
bg1
(g150
g54
g154
g120
g334
g170
tp425
Rp426
(dp427
bg1
(g272
g62
g129
g132
g34
(g94
g90
tp428
Rp429
(dp430
btp431
Rp432
(dp433
bg1
(g90
g54
g2
(S'Den9'
p434
tp435
Rp436
(dp437
g7
g8
(g9
g10
(dp438
g12
I01
sg13
Nsg14
I01
sg16
Nsg17
Nsg22
I01
sg20
I01
sg57
Nsg24
I00
stp439
Rp440
sbg62
g110
tp441
Rp442
(dp443
bg1
(g217
g245
g223
g195
g238
tp444
Rp445
(dp446
bg1
(g245
g129
g34
(g154
g138
tp447
Rp448
(dp449
btp450
Rp451
(dp452
bg1
(g220
g154
g245
g192
g34
(g54
g272
tp453
Rp454
(dp455
btp456
Rp457
(dp458
bg1
(g254
g120
g62
g260
g266
tp459
Rp460
(dp461
bg1
(g44
g402
g368
g72
tp462
Rp463
(dp464
bg1
(g62
g110
g34
(g101
g90
tp465
Rp466
(dp467
btp468
Rp469
(dp470
bg1
(g90
g154
g402
g29
g110
tp471
Rp472
(dp473
bg1
(g257
g154
g62
g294
g34
(g54
g254
tp474
Rp475
(dp476
btp477
Rp478
(dp479
bg1
(g272
g334
g129
g132
g238
tp480
Rp481
(dp482
bg1
(g90
g94
g161
g62
g110
tp483
Rp484
(dp485
bg1
(g138
g402
g62
g129
g315
tp486
Rp487
(dp488
bg1
(g67
(I-21
tp489
Rp490
(dp491
bg29
g192
g346
g238
tp492
Rp493
(dp494
bg1
(g2
(S'Num10'
p495
tp496
Rp497
(dp498
g7
g8
(g9
g10
(dp499
g12
I01
sg13
Nsg14
I01
sg16
Nsg17
Nsg22
I01
sg20
I01
sg24
I00
stp500
Rp501
sbg47
tp502
Rp503
(dp504
bg1
(g383
g154
g94
g29
g235
g315
tp505
Rp506
(dp507
bg1
(g44
g2
(S'Num7'
p508
tp509
Rp510
(dp511
g7
g8
(g9
g10
(dp512
g12
I01
sg13
Nsg14
I01
sg16
Nsg17
Nsg22
I01
sg20
I01
sg24
I00
stp513
Rp514
sbg170
g315
tp515
Rp516
(dp517
bg1
(g116
g54
g120
g245
g129
g238
tp518
Rp519
(dp520
bg1
(g220
g94
g62
g192
g454
tp521
Rp522
(dp523
bg1
(g107
g2
(S'Den8'
p524
tp525
Rp526
(dp527
g7
g8
(g9
g10
(dp528
g12
I01
sg13
Nsg14
I01
sg16
Nsg17
Nsg22
I01
sg20
I01
sg57
Nsg24
I00
stp529
Rp530
sbg62
g170
g132
tp531
Rp532
(dp533
bg1
(g232
g120
g29
g235
g132
g238
tp534
Rp535
(dp536
bg1
(g67
(I60
tp537
Rp538
(dp539
bg120
g62
g223
g315
g238
tp540
Rp541
(dp542
bg1
(g150
g54
g94
g101
g62
g170
tp543
Rp544
(dp545
bg1
(g291
g245
g235
g132
g198
tp546
Rp547
(dp548
bg1
(g107
g120
g279
g170
g132
tp549
Rp550
(dp551
bg1
(g67
(I30
tp552
Rp553
(dp554
bg154
g94
g62
g223
g195
tp555
Rp556
(dp557
bg1
(g126
g120
g368
g235
g195
tp558
Rp559
(dp560
bg1
(g44
g2
(S'Den10'
p561
tp562
Rp563
(dp564
g7
g8
(g9
g10
(dp565
g12
I01
sg13
Nsg14
I01
sg16
Nsg17
Nsg22
I01
sg20
I01
sg57
Nsg24
I00
stp566
Rp567
sbg62
g72
tp568
Rp569
(dp570
bg1
(g90
g154
g120
g279
g110
tp571
Rp572
(dp573
bg1
(g383
g154
g101
g62
g235
g315
tp574
Rp575
(dp576
bg1
(g90
g54
g94
g279
g110
tp577
Rp578
(dp579
bg1
(g90
g54
g161
g368
g110
tp580
Rp581
(dp582
bg1
(g44
g334
g170
g198
tp583
Rp584
(dp585
bg1
(g138
g161
g29
g129
g315
tp586
Rp587
(dp588
bg1
(g90
g120
g101
g245
g110
tp589
Rp590
(dp591
bg1
(g383
g154
g120
g245
g235
g315
tp592
Rp593
(dp594
bg1
(g90
g54
g101
g334
g110
tp595
Rp596
(dp597
bg1
(g116
g154
g120
g368
g129
g132
tp598
Rp599
(dp600
bg1
(g138
g154
g279
g129
g315
tp601
Rp602
(dp603
bg1
(g116
g54
g101
g62
g129
g238
tp604
Rp605
(dp606
bg1
(g44
g279
g235
g346
tp607
Rp608
(dp609
bg1
(g291
g29
g235
g315
g226
tp610
Rp611
(dp612
bg1
(g232
g154
g62
g235
g132
g226
tp613
Rp614
(dp615
bg1
(g126
g94
g245
g235
g195
tp616
Rp617
(dp618
bg1
(g90
g154
g94
g334
g110
tp619
Rp620
(dp621
bg1
(g205
g110
g238
tp622
Rp623
(dp624
bg1
(g116
g154
g101
g29
g129
g132
tp625
Rp626
(dp627
bg1
(g107
g154
g245
g170
g226
tp628
Rp629
(dp630
bg1
(g44
g526
g245
g72
tp631
Rp632
(dp633
bg1
(g116
g54
g94
g29
g129
g238
tp634
Rp635
(dp636
bg1
(g138
g94
g62
g129
g198
tp637
Rp638
(dp639
bg1
(g90
g54
g154
g510
g110
tp640
Rp641
(dp642
bg1
(g67
(I28
tp643
Rp644
(dp645
bg62
g260
g454
g238
tp646
Rp647
(dp648
bg1
(g272
g154
g368
g223
g346
tp649
Rp650
(dp651
bg1
(g107
g101
g368
g170
g132
tp652
Rp653
(dp654
bg1
(g107
g402
g29
g170
g132
tp655
Rp656
(dp657
bg1
(g138
g120
g334
g129
g315
tp658
Rp659
(dp660
bg1
(g90
g120
g161
g29
g110
tp661
Rp662
(dp663
bg1
(g138
g94
g368
g129
g315
tp664
Rp665
(dp666
bg1
(g126
g101
g29
g235
g195
tp667
Rp668
(dp669
bg1
(g107
g154
g205
g170
g132
tp670
Rp671
(dp672
bg1
(g150
g54
g120
g94
g245
g170
tp673
Rp674
(dp675
bg1
(g107
g154
g62
g170
g429
tp676
Rp677
(dp678
bg1
(g90
g120
g402
g62
g110
tp679
Rp680
(dp681
bg1
(g291
g368
g235
g315
g238
tp682
Rp683
(dp684
bg1
(g90
g154
g161
g245
g110
tp685
Rp686
(dp687
bg1
(g245
g110
g429
tp688
Rp689
(dp690
bg1
(g245
g260
g475
tp691
Rp692
(dp693
bg1
(g44
g436
g29
g72
tp694
Rp695
(dp696
bg1
(g150
g54
g120
g101
g29
g170
tp697
Rp698
(dp699
bg1
(g205
g129
g195
tp700
Rp701
(dp702
bg1
(g138
g101
g245
g129
g315
tp703
Rp704
(dp705
bg1
(g107
g54
g29
g170
g429
tp706
Rp707
(dp708
bg1
(g150
g154
g120
g94
g29
g170
tp709
Rp710
(dp711
bg1
(g138
g54
g368
g129
g198
tp712
Rp713
(dp714
bg1
(g150
g54
g120
g161
g62
g170
tp715
Rp716
(dp717
bg1
(g44
g368
g192
g266
tp718
Rp719
(dp720
bg1
(g150
g54
g154
g402
g62
g170
tp721
Rp722
(dp723
bg1
(g44
g29
g170
g144
tp724
Rp725
(dp726
bg1
(g90
g54
g120
g205
g110
tp727
Rp728
(dp729
bg1
(g116
g54
g154
g29
g129
g226
tp730
Rp731
(dp732
bg1
(g90
g54
g526
g29
g110
tp733
Rp734
(dp735
bg1
(g67
(I24
tp736
Rp737
(dp738
bg54
g154
g120
g94
g62
g129
tp739
Rp740
(dp741
bg1
(g150
g154
g120
g101
g62
g170
tp742
Rp743
(dp744
bg1
(g334
g223
g454
tp745
Rp746
(dp747
bg1
(g90
g154
g526
g62
g110
tp748
Rp749
(dp750
bg1
(g138
g120
g29
g129
g198
tp751
Rp752
(dp753
bg1
(g126
g161
g62
g235
g195
tp754
Rp755
(dp756
bg1
(g107
g120
g368
g170
g238
tp757
Rp758
(dp759
bg1
(g44
g120
g510
g72
tp760
Rp761
(dp762
bg1
(g107
g94
g62
g170
g226
tp763
Rp764
(dp765
bg1
(g383
g54
g120
g62
g235
g198
tp766
Rp767
(dp768
bg1
(g126
g54
g29
g235
g448
tp769
Rp770
(dp771
bg1
(g44
g54
g2
(S'Num9'
p772
tp773
Rp774
(dp775
g7
g8
(g9
g10
(dp776
g12
I01
sg13
Nsg14
I01
sg16
Nsg17
Nsg22
I01
sg20
I01
sg24
I00
stp777
Rp778
sbg72
tp779
Rp780
(dp781
bg1
(g553
g154
g120
g29
g223
g195
tp782
Rp783
(dp784
bg1
(g177
g110
g132
tp785
Rp786
(dp787
bg1
(g217
g62
g223
g132
g448
tp788
Rp789
(dp790
bg1
(g116
g120
g101
g62
g129
g132
tp791
Rp792
(dp793
bg1
(g220
g120
g29
g192
g454
tp794
Rp795
(dp796
btp797
Rp798
(dp799
btp800
Rp801
(dp802
bcsympy.series.order
Order
p803
(g34
(g5
g67
(I11
tp804
Rp805
(dp806
btp807
Rp808
(dp809
bg5
tp810
Rp811
(dp812
bg1
(g34
(g5
g263
tp813
Rp814
(dp815
bg0
(g1
(g44
g94
g368
g72
tp816
Rp817
(dp818
bg1
(g90
g54
g161
g62
g110
tp819
Rp820
(dp821
bg1
(g44
g154
g279
g72
tp822
Rp823
(dp824
bg1
(g29
g223
g454
tp825
Rp826
(dp827
bg1
(g44
g120
g334
g72
tp828
Rp829
(dp830
bg1
(g138
g120
g29
g129
g315
tp831
Rp832
(dp833
bg1
(g44
g245
g235
g346
tp834
Rp835
(dp836
bg1
(g90
g154
g94
g29
g110
tp837
Rp838
(dp839
bg1
(g44
g54
g205
g72
tp840
Rp841
(dp842
bg1
(g272
g154
g62
g223
g346
tp843
Rp844
(dp845
bg1
(g44
g62
g192
g266
tp846
Rp847
(dp848
bg1
(g107
g154
g368
g170
g132
tp849
Rp850
(dp851
bg1
(g291
g62
g235
g315
g238
tp852
Rp853
(dp854
bg1
(g279
g110
g132
tp855
Rp856
(dp857
bg1
(g29
g110
g226
tp858
Rp859
(dp860
bg1
(g90
g120
g94
g62
g110
tp861
Rp862
(dp863
bg1
(g44
g161
g29
g72
tp864
Rp865
(dp866
bg1
(g138
g94
g62
g129
g315
tp867
Rp868
(dp869
bg1
(g44
g101
g245
g72
tp870
Rp871
(dp872
bg1
(g150
g54
g154
g120
g29
g170
tp873
Rp874
(dp875
bg1
(g107
g120
g245
g170
g132
tp876
Rp877
(dp878
bg1
(g510
g47
tp879
Rp880
(dp881
bg1
(g272
g29
g129
g132
g238
tp882
Rp883
(dp884
bg1
(g44
g334
g170
g315
tp885
Rp886
(dp887
bg1
(g116
g154
g120
g62
g129
g132
tp888
Rp889
(dp890
bg1
(g90
g54
g94
g245
g110
tp891
Rp892
(dp893
bg1
(g107
g101
g62
g170
g132
tp894
Rp895
(dp896
bg1
(g107
g94
g29
g170
g132
tp897
Rp898
(dp899
bg1
(g90
g54
g101
g29
g110
tp900
Rp901
(dp902
bg1
(g126
g154
g29
g235
g195
tp903
Rp904
(dp905
bg1
(g368
g129
g195
tp906
Rp907
(dp908
bg1
(g107
g120
g62
g170
g238
tp909
Rp910
(dp911
bg1
(g150
g54
g154
g94
g62
g170
tp912
Rp913
(dp914
bg1
(g90
g54
g120
g368
g110
tp915
Rp916
(dp917
bg1
(g90
g154
g120
g245
g110
tp918
Rp919
(dp920
bg1
(g368
g110
g238
tp921
Rp922
(dp923
bg1
(g126
g120
g62
g235
g195
tp924
Rp925
(dp926
bg1
(g44
g402
g62
g72
tp927
Rp928
(dp929
bg1
(g138
g154
g245
g129
g315
tp930
Rp931
(dp932
bg1
(g138
g54
g62
g129
g198
tp933
Rp934
(dp935
bg1
(g90
g154
g101
g62
g110
tp936
Rp937
(dp938
bg1
(g107
g54
g62
g170
g226
tp939
Rp940
(dp941
bg1
(g44
g29
g170
g198
tp942
Rp943
(dp944
bg1
(g107
g54
g245
g170
g238
tp945
Rp946
(dp947
bg1
(g90
g54
g154
g334
g110
tp948
Rp949
(dp950
btp951
Rp952
(dp953
btp954
Rp955
(dp956
bg1
(g34
(g5
g343
tp957
Rp958
(dp959
bg0
(g1
(g279
g47
tp960
Rp961
(dp962
bg1
(g368
g110
g132
tp963
Rp964
(dp965
bg1
(g44
g245
g170
g315
tp966
Rp967
(dp968
bg1
(g90
g154
g120
g62
g110
tp969
Rp970
(dp971
bg1
(g107
g154
g29
g170
g132
tp972
Rp973
(dp974
bg1
(g44
g154
g368
g72
tp975
Rp976
(dp977
bg1
(g44
g120
g245
g72
tp978
Rp979
(dp980
bg1
(g29
g129
g195
tp981
Rp982
(dp983
bg1
(g107
g54
g62
g170
g238
tp984
Rp985
(dp986
bg1
(g138
g154
g62
g129
g315
tp987
Rp988
(dp989
bg1
(g90
g54
g154
g245
g110
tp990
Rp991
(dp992
bg1
(g44
g94
g29
g72
tp993
Rp994
(dp995
bg1
(g44
g54
g334
g72
tp996
Rp997
(dp998
bg1
(g29
g110
g238
tp999
Rp1000
(dp1001
bg1
(g107
g120
g62
g170
g132
tp1002
Rp1003
(dp1004
bg1
(g90
g54
g94
g62
g110
tp1005
Rp1006
(dp1007
bg1
(g44
g101
g62
g72
tp1008
Rp1009
(dp1010
bg1
(g90
g54
g120
g29
g110
tp1011
Rp1012
(dp1013
bg1
(g44
g62
g235
g346
tp1014
Rp1015
(dp1016
btp1017
Rp1018
(dp1019
btp1020
Rp1021
(dp1022
bg1
(g34
(g5
g141
tp1023
Rp1024
(dp1025
bg0
(g1
(g44
g154
g29
g72
tp1026
Rp1027
(dp1028
bg1
(g44
g54
g245
g72
tp1029
Rp1030
(dp1031
bg1
(g90
g54
g154
g62
g110
tp1032
Rp1033
(dp1034
bg1
(g44
g120
g62
g72
tp1035
Rp1036
(dp1037
bg1
(g29
g110
g132
tp1038
Rp1039
(dp1040
bg1
(g44
g62
g170
g315
tp1041
Rp1042
(dp1043
bg1
(g368
g47
tp1044
Rp1045
(dp1046
btp1047
Rp1048
(dp1049
btp1050
Rp1051
(dp1052
bg1
(g34
(g5
g90
tp1053
Rp1054
(dp1055
bg0
(g1
(g245
g47
tp1056
Rp1057
(dp1058
bg1
(g62
g110
g132
tp1059
Rp1060
(dp1061
bg1
(g44
g154
g62
g72
tp1062
Rp1063
(dp1064
bg1
(g44
g54
g29
g72
tp1065
Rp1066
(dp1067
btp1068
Rp1069
(dp1070
btp1071
Rp1072
(dp1073
bg1
(g34
(g5
g138
tp1074
Rp1075
(dp1076
bg0
(g1
(g44
g94
g62
g72
tp1077
Rp1078
(dp1079
bg1
(g44
g54
g368
g72
tp1080
Rp1081
(dp1082
bg1
(g62
g129
g195
tp1083
Rp1084
(dp1085
bg1
(g107
g154
g62
g170
g132
tp1086
Rp1087
(dp1088
bg1
(g90
g54
g154
g29
g110
tp1089
Rp1090
(dp1091
bg1
(g44
g120
g29
g72
tp1092
Rp1093
(dp1094
bg1
(g334
g47
tp1095
Rp1096
(dp1097
bg1
(g44
g154
g245
g72
tp1098
Rp1099
(dp1100
bg1
(g44
g29
g170
g315
tp1101
Rp1102
(dp1103
bg1
(g62
g110
g238
tp1104
Rp1105
(dp1106
bg1
(g245
g110
g132
tp1107
Rp1108
(dp1109
bg1
(g90
g54
g120
g62
g110
tp1110
Rp1111
(dp1112
btp1113
Rp1114
(dp1115
btp1116
Rp1117
(dp1118
bg1
(g34
(g5
g254
tp1119
Rp1120
(dp1121
bg0
(g1
(g90
g154
g120
g368
g110
tp1122
Rp1123
(dp1124
bg1
(g44
g29
g192
g266
tp1125
Rp1126
(dp1127
bg1
(g44
g279
g170
g315
tp1128
Rp1129
(dp1130
bg1
(g44
g368
g235
g346
tp1131
Rp1132
(dp1133
bg1
(g138
g101
g62
g129
g315
tp1134
Rp1135
(dp1136
bg1
(g116
g154
g94
g62
g129
g132
tp1137
Rp1138
(dp1139
bg1
(g334
g129
g195
tp1140
Rp1141
(dp1142
bg1
(g107
g94
g62
g170
g238
tp1143
Rp1144
(dp1145
bg1
(g44
g161
g245
g72
tp1146
Rp1147
(dp1148
bg1
(g107
g54
g368
g170
g238
tp1149
Rp1150
(dp1151
bg1
(g90
g154
g101
g29
g110
tp1152
Rp1153
(dp1154
bg1
(g90
g54
g101
g245
g110
tp1155
Rp1156
(dp1157
bg1
(g126
g120
g29
g235
g195
tp1158
Rp1159
(dp1160
bg1
(g107
g154
g334
g170
g132
tp1161
Rp1162
(dp1163
bg1
(g126
g154
g245
g235
g195
tp1164
Rp1165
(dp1166
bg1
(g138
g54
g29
g129
g198
tp1167
Rp1168
(dp1169
bg1
(g44
g54
g510
g72
tp1170
Rp1171
(dp1172
bg1
(g44
g402
g29
g72
tp1173
Rp1174
(dp1175
bg1
(g44
g94
g334
g72
tp1176
Rp1177
(dp1178
bg1
(g138
g94
g29
g129
g315
tp1179
Rp1180
(dp1181
bg1
(g217
g62
g223
g195
g238
tp1182
Rp1183
(dp1184
bg1
(g90
g54
g94
g368
g110
tp1185
Rp1186
(dp1187
bg1
(g90
g120
g101
g62
g110
tp1188
Rp1189
(dp1190
bg1
(g272
g120
g62
g223
g346
tp1191
Rp1192
(dp1193
bg1
(g138
g154
g368
g129
g315
tp1194
Rp1195
(dp1196
bg1
(g62
g260
g475
tp1197
Rp1198
(dp1199
bg1
(g291
g29
g235
g315
g238
tp1200
Rp1201
(dp1202
bg1
(g107
g54
g29
g170
g226
tp1203
Rp1204
(dp1205
bg1
(g245
g110
g226
tp1206
Rp1207
(dp1208
bg1
(g150
g54
g154
g120
g245
g170
tp1209
Rp1210
(dp1211
bg1
(g116
g154
g120
g29
g129
g132
tp1212
Rp1213
(dp1214
bg1
(g220
g154
g62
g192
g454
tp1215
Rp1216
(dp1217
bg1
(g150
g54
g120
g94
g62
g170
tp1218
Rp1219
(dp1220
bg1
(g138
g120
g245
g129
g315
tp1221
Rp1222
(dp1223
bg1
(g150
g54
g154
g101
g62
g170
tp1224
Rp1225
(dp1226
bg1
(g334
g110
g238
tp1227
Rp1228
(dp1229
bg1
(g62
g110
g429
tp1230
Rp1231
(dp1232
bg1
(g383
g154
g120
g62
g235
g315
tp1233
Rp1234
(dp1235
bg1
(g116
g54
g120
g62
g129
g238
tp1236
Rp1237
(dp1238
bg1
(g90
g54
g154
g279
g110
tp1239
Rp1240
(dp1241
bg1
(g177
g47
tp1242
Rp1243
(dp1244
bg1
(g107
g94
g245
g170
g132
tp1245
Rp1246
(dp1247
bg1
(g107
g120
g29
g170
g238
tp1248
Rp1249
(dp1250
bg1
(g272
g62
g129
g132
g226
tp1251
Rp1252
(dp1253
bg1
(g90
g54
g402
g62
g110
tp1254
Rp1255
(dp1256
bg1
(g126
g94
g62
g235
g195
tp1257
Rp1258
(dp1259
bg1
(g44
g154
g205
g72
tp1260
Rp1261
(dp1262
bg1
(g90
g120
g94
g29
g110
tp1263
Rp1264
(dp1265
bg1
(g150
g54
g154
g94
g29
g170
tp1266
Rp1267
(dp1268
bg1
(g291
g62
g235
g132
g198
tp1269
Rp1270
(dp1271
bg1
(g107
g154
g62
g170
g226
tp1272
Rp1273
(dp1274
bg1
(g90
g154
g161
g62
g110
tp1275
Rp1276
(dp1277
bg1
(g90
g54
g161
g29
g110
tp1278
Rp1279
(dp1280
bg1
(g44
g101
g368
g72
tp1281
Rp1282
(dp1283
bg1
(g107
g101
g29
g170
g132
tp1284
Rp1285
(dp1286
bg1
(g107
g161
g62
g170
g132
tp1287
Rp1288
(dp1289
bg1
(g44
g120
g279
g72
tp1290
Rp1291
(dp1292
bg1
(g44
g526
g62
g72
tp1293
Rp1294
(dp1295
bg1
(g272
g154
g29
g223
g346
tp1296
Rp1297
(dp1298
bg1
(g90
g54
g120
g334
g110
tp1299
Rp1300
(dp1301
bg1
(g245
g223
g454
tp1302
Rp1303
(dp1304
bg1
(g107
g120
g368
g170
g132
tp1305
Rp1306
(dp1307
bg1
(g90
g154
g94
g245
g110
tp1308
Rp1309
(dp1310
bg1
(g44
g245
g170
g198
tp1311
Rp1312
(dp1313
bg1
(g205
g110
g132
tp1314
Rp1315
(dp1316
bg1
(g272
g245
g129
g132
g238
tp1317
Rp1318
(dp1319
bg1
(g62
g129
g448
tp1320
Rp1321
(dp1322
btp1323
Rp1324
(dp1325
btp1326
Rp1327
(dp1328
bg1
(g34
(g5
g297
tp1329
Rp1330
(dp1331
bg0
(g1
(g138
g120
g62
g129
g198
tp1332
Rp1333
(dp1334
bg1
(g138
g120
g368
g129
g315
tp1335
Rp1336
(dp1337
bg1
(g90
g154
g101
g245
g110
tp1338
Rp1339
(dp1340
bg1
(g150
g54
g120
g94
g29
g170
tp1341
Rp1342
(dp1343
bg1
(g107
g402
g62
g170
g132
tp1344
Rp1345
(dp1346
bg1
(g44
g402
g245
g72
tp1347
Rp1348
(dp1349
bg1
(g138
g161
g62
g129
g315
tp1350
Rp1351
(dp1352
bg1
(g279
g110
g238
tp1353
Rp1354
(dp1355
bg1
(g44
g368
g170
g198
tp1356
Rp1357
(dp1358
bg1
(g217
g29
g223
g195
g238
tp1359
Rp1360
(dp1361
bg1
(g107
g154
g279
g170
g132
tp1362
Rp1363
(dp1364
bg1
(g44
g120
g205
g72
tp1365
Rp1366
(dp1367
bg1
(g44
g101
g334
g72
tp1368
Rp1369
(dp1370
bg1
(g116
g154
g120
g245
g129
g132
tp1371
Rp1372
(dp1373
bg1
(g150
g54
g154
g161
g62
g170
tp1374
Rp1375
(dp1376
bg1
(g90
g154
g120
g334
g110
tp1377
Rp1378
(dp1379
bg1
(g116
g154
g94
g29
g129
g132
tp1380
Rp1381
(dp1382
bg1
(g107
g54
g62
g170
g429
tp1383
Rp1384
(dp1385
bg1
(g107
g94
g368
g170
g132
tp1386
Rp1387
(dp1388
bg1
(g107
g101
g245
g170
g132
tp1389
Rp1390
(dp1391
bg1
(g90
g54
g402
g29
g110
tp1392
Rp1393
(dp1394
bg1
(g138
g94
g245
g129
g315
tp1395
Rp1396
(dp1397
bg1
(g44
g161
g368
g72
tp1398
Rp1399
(dp1400
bg1
(g150
g154
g120
g94
g62
g170
tp1401
Rp1402
(dp1403
bg1
(g138
g101
g29
g129
g315
tp1404
Rp1405
(dp1406
bg1
(g383
g154
g120
g29
g235
g315
tp1407
Rp1408
(dp1409
bg1
(g44
g62
g294
g300
tp1410
Rp1411
(dp1412
bg1
(g279
g129
g195
tp1413
Rp1414
(dp1415
bg1
(g312
g62
g223
g315
g198
tp1416
Rp1417
(dp1418
bg1
(g116
g54
g120
g29
g129
g238
tp1419
Rp1420
(dp1421
bg1
(g29
g129
g448
tp1422
Rp1423
(dp1424
bg1
(g90
g54
g101
g368
g110
tp1425
Rp1426
(dp1427
bg1
(g44
g205
g170
g315
tp1428
Rp1429
(dp1430
bg1
(g90
g120
g161
g62
g110
tp1431
Rp1432
(dp1433
bg1
(g272
g94
g62
g223
g346
tp1434
Rp1435
(dp1436
bg1
(g126
g101
g62
g235
g195
tp1437
Rp1438
(dp1439
bg1
(g383
g154
g94
g62
g235
g315
tp1440
Rp1441
(dp1442
bg1
(g138
g154
g334
g129
g315
tp1443
Rp1444
(dp1445
bg1
(g90
g154
g161
g29
g110
tp1446
Rp1447
(dp1448
bg1
(g90
g54
g161
g245
g110
tp1449
Rp1450
(dp1451
bg1
(g220
g154
g29
g192
g454
tp1452
Rp1453
(dp1454
bg1
(g510
g110
g132
tp1455
Rp1456
(dp1457
bg1
(g107
g154
g29
g170
g226
tp1458
Rp1459
(dp1460
bg1
(g29
g260
g475
tp1461
Rp1462
(dp1463
bg1
(g368
g223
g454
tp1464
Rp1465
(dp1466
bg1
(g90
g154
g94
g368
g110
tp1467
Rp1468
(dp1469
bg1
(g272
g154
g245
g223
g346
tp1470
Rp1471
(dp1472
bg1
(g44
g436
g62
g72
tp1473
Rp1474
(dp1475
bg1
(g90
g54
g94
g334
g110
tp1476
Rp1477
(dp1478
bg1
(g553
g154
g120
g62
g223
g195
tp1479
Rp1480
(dp1481
bg1
(g90
g54
g154
g205
g110
tp1482
Rp1483
(dp1484
bg1
(g90
g54
g120
g279
g110
tp1485
Rp1486
(dp1487
bg1
(g107
g120
g334
g170
g132
tp1488
Rp1489
(dp1490
bg1
(g107
g94
g29
g170
g238
tp1491
Rp1492
(dp1493
bg1
(g368
g110
g226
tp1494
Rp1495
(dp1496
bg1
(g44
g94
g279
g72
tp1497
Rp1498
(dp1499
bg1
(g291
g29
g235
g132
g198
tp1500
Rp1501
(dp1502
bg1
(g90
g120
g101
g29
g110
tp1503
Rp1504
(dp1505
bg1
(g107
g54
g245
g170
g226
tp1506
Rp1507
(dp1508
bg1
(g272
g368
g129
g132
g238
tp1509
Rp1510
(dp1511
bg1
(g150
g54
g154
g101
g29
g170
tp1512
Rp1513
(dp1514
bg1
(g90
g154
g402
g62
g110
tp1515
Rp1516
(dp1517
bg1
(g232
g120
g62
g235
g132
g238
tp1518
Rp1519
(dp1520
bg1
(g44
g245
g192
g266
tp1521
Rp1522
(dp1523
bg1
(g138
g54
g245
g129
g198
tp1524
Rp1525
(dp1526
bg1
(g126
g120
g245
g235
g195
tp1527
Rp1528
(dp1529
bg1
(g126
g94
g29
g235
g195
tp1530
Rp1531
(dp1532
bg1
(g116
g154
g101
g62
g129
g132
tp1533
Rp1534
(dp1535
bg1
(g90
g94
g101
g62
g110
tp1536
Rp1537
(dp1538
bg1
(g272
g29
g129
g132
g226
tp1539
Rp1540
(dp1541
bg1
(g44
g334
g235
g346
tp1542
Rp1543
(dp1544
bg1
(g44
g54
g177
g72
tp1545
Rp1546
(dp1547
bg1
(g90
g54
g526
g62
g110
tp1548
Rp1549
(dp1550
bg1
(g126
g154
g368
g235
g195
tp1551
Rp1552
(dp1553
bg1
(g29
g110
g429
tp1554
Rp1555
(dp1556
bg1
(g490
g62
g192
g346
g238
tp1557
Rp1558
(dp1559
bg1
(g116
g120
g94
g62
g129
g132
tp1560
Rp1561
(dp1562
bg1
(g90
g120
g94
g245
g110
tp1563
Rp1564
(dp1565
bg1
(g150
g54
g154
g94
g245
g170
tp1566
Rp1567
(dp1568
bg1
(g107
g120
g245
g170
g238
tp1569
Rp1570
(dp1571
bg1
(g272
g120
g29
g223
g346
tp1572
Rp1573
(dp1574
bg1
(g254
g154
g62
g260
g266
tp1575
Rp1576
(dp1577
bg1
(g44
g62
g170
g144
tp1578
Rp1579
(dp1580
bg1
(g44
g154
g510
g72
tp1581
Rp1582
(dp1583
bg1
(g291
g62
g235
g315
g226
tp1584
Rp1585
(dp1586
bg1
(g774
g47
tp1587
Rp1588
(dp1589
bg1
(g150
g54
g120
g101
g62
g170
tp1590
Rp1591
(dp1592
bg1
(g107
g161
g29
g170
g132
tp1593
Rp1594
(dp1595
bg1
(g107
g54
g334
g170
g238
tp1596
Rp1597
(dp1598
bg1
(g116
g54
g94
g62
g129
g238
tp1599
Rp1600
(dp1601
bg1
(g107
g101
g62
g170
g238
tp1602
Rp1603
(dp1604
bg1
(g116
g54
g154
g62
g129
g226
tp1605
Rp1606
(dp1607
bg1
(g150
g54
g154
g120
g368
g170
tp1608
Rp1609
(dp1610
bg1
(g126
g54
g62
g235
g448
tp1611
Rp1612
(dp1613
bg1
(g44
g526
g29
g72
tp1614
Rp1615
(dp1616
bg1
(g220
g120
g62
g192
g454
tp1617
Rp1618
(dp1619
bg1
(g291
g245
g235
g315
g238
tp1620
Rp1621
(dp1622
btp1623
Rp1624
(dp1625
btp1626
Rp1627
(dp1628
bg1
(g62
g47
tp1629
Rp1630
(dp1631
bg1
(g34
(g5
g272
tp1632
Rp1633
(dp1634
bg0
(g1
(g138
g154
g29
g129
g315
tp1635
Rp1636
(dp1637
bg1
(g44
g94
g245
g72
tp1638
Rp1639
(dp1640
bg1
(g107
g54
g29
g170
g238
tp1641
Rp1642
(dp1643
bg1
(g107
g94
g62
g170
g132
tp1644
Rp1645
(dp1646
bg1
(g150
g54
g154
g120
g62
g170
tp1647
Rp1648
(dp1649
bg1
(g44
g101
g29
g72
tp1650
Rp1651
(dp1652
bg1
(g107
g154
g245
g170
g132
tp1653
Rp1654
(dp1655
bg1
(g44
g161
g62
g72
tp1656
Rp1657
(dp1658
bg1
(g245
g110
g238
tp1659
Rp1660
(dp1661
bg1
(g44
g29
g235
g346
tp1662
Rp1663
(dp1664
bg1
(g334
g110
g132
tp1665
Rp1666
(dp1667
bg1
(g62
g223
g454
tp1668
Rp1669
(dp1670
bg1
(g90
g154
g94
g62
g110
tp1671
Rp1672
(dp1673
bg1
(g44
g154
g334
g72
tp1674
Rp1675
(dp1676
bg1
(g126
g154
g62
g235
g195
tp1677
Rp1678
(dp1679
bg1
(g107
g120
g29
g170
g132
tp1680
Rp1681
(dp1682
bg1
(g62
g110
g226
tp1683
Rp1684
(dp1685
bg1
(g245
g129
g195
tp1686
Rp1687
(dp1688
bg1
(g90
g54
g101
g62
g110
tp1689
Rp1690
(dp1691
bg1
(g44
g62
g170
g198
tp1692
Rp1693
(dp1694
bg1
(g90
g54
g154
g368
g110
tp1695
Rp1696
(dp1697
bg1
(g205
g47
tp1698
Rp1699
(dp1700
bg1
(g44
g120
g368
g72
tp1701
Rp1702
(dp1703
bg1
(g272
g62
g129
g132
g238
tp1704
Rp1705
(dp1706
bg1
(g90
g154
g120
g29
g110
tp1707
Rp1708
(dp1709
bg1
(g90
g54
g120
g245
g110
tp1710
Rp1711
(dp1712
bg1
(g90
g54
g94
g29
g110
tp1713
Rp1714
(dp1715
bg1
(g44
g368
g170
g315
tp1716
Rp1717
(dp1718
bg1
(g138
g120
g62
g129
g315
tp1719
Rp1720
(dp1721
bg1
(g44
g54
g279
g72
tp1722
Rp1723
(dp1724
btp1725
Rp1726
(dp1727
btp1728
Rp1729
(dp1730
btp1731
Rp1732
(dp1733
b.