csympy.core.add
Add
p0
(csympy.core.mul
Mul
p1
(csympy.core.symbol
Symbol
p2
(S'PolynomialVariable'
p3
tp4
Rp5
(dp6
S'_assumptions'
p7
ccopy_reg
_reconstructor
p8
(csympy.core.assumptions
StdFactKB
p9
c__builtin__
dict
p10
(dp11
S'real'
p12
I01
sS'polar'
p13
NsS'commutative'
p14
I01
sS'nonpositive'
p15
NsS'positive'
p16
NsS'negative'
p17
NsS'nonnegative'
p18
NsS'zero'
p19
NsS'complex'
p20
I01
sS'rational'
p21
NsS'hermitian'
p22
I01
sS'nonzero'
p23
NsS'imaginary'
p24
I00
stp25
Rp26
sbg0
(g1
(g2
(S'Num1'
p27
tp28
Rp29
(dp30
g7
g8
(g9
g10
(dp31
g12
I01
sg13
Nsg14
I01
sg16
Nsg17
Nsg22
I01
sg20
I01
sg24
I00
stp32
Rp33
sbcsympy.core.power
Pow
p34
(g2
(S'Den0'
p35
tp36
Rp37
(dp38
g7
g8
(g9
g10
(dp39
g12
I01
sg13
Nsg14
I01
sS'unbounded'
p40
Nsg17
Nsg22
I01
sg20
I01
sg16
Nsg24
I00
stp41
Rp42
sbcsympy.core.numbers
NegativeOne
p43
(tRp44
(dp45
btp46
Rp47
(dp48
btp49
Rp50
(dp51
bg1
(g44
g2
(S'Den1'
p52
tp53
Rp54
(dp55
g7
g8
(g9
g10
(dp56
g12
I01
sg13
Nsg14
I01
sg16
Nsg17
Nsg22
I01
sg20
I01
sS'bounded'
p57
Nsg24
I00
stp58
Rp59
sbg2
(S'Num0'
p60
tp61
Rp62
(dp63
g7
g8
(g9
g10
(dp64
g12
I01
sg13
Nsg14
I01
sg16
Nsg17
Nsg22
I01
sg20
I01
sg24
I00
stp65
Rp66
sbg34
(g37
csympy.core.numbers
Integer
p67
(I-2
tp68
Rp69
(dp70
btp71
Rp72
(dp73
btp74
Rp75
(dp76
btp77
Rp78
(dp79
btp80
Rp81
(dp82
bg1
(g34
(g5
g67
(I10
tp83
Rp84
(dp85
btp86
Rp87
(dp88
bg0
(g1
(g67
(I2
tp89
Rp90
(dp91
bg2
(S'Den4'
p92
tp93
Rp94
(dp95
g7
g8
(g9
g10
(dp96
g12
I01
sg13
Nsg14
I01
sg16
Nsg17
Nsg22
I01
sg20
I01
sg57
Nsg24
I00
stp97
Rp98
sbg2
(S'Den5'
p99
tp100
Rp101
(dp102
g7
g8
(g9
g10
(dp103
g12
I01
sg13
Nsg14
I01
sg16
Nsg17
Nsg22
I01
sg20
I01
sg57
Nsg24
I00
stp104
Rp105
sbg29
g34
(g37
g67
(I-3
tp106
Rp107
(dp108
btp109
Rp110
(dp111
btp112
Rp113
(dp114
bg1
(g67
(I12
tp115
Rp116
(dp117
bg2
(S'Den3'
p118
tp119
Rp120
(dp121
g7
g8
(g9
g10
(dp122
g12
I01
sg13
Nsg14
I01
sg16
Nsg17
Nsg22
I01
sg20
I01
sg57
Nsg24
I00
stp123
Rp124
sbg94
g29
g34
(g37
g67
(I-5
tp125
Rp126
(dp127
btp128
Rp129
(dp130
bg34
(g54
g90
tp131
Rp132
(dp133
btp134
Rp135
(dp136
bg1
(g67
(I4
tp137
Rp138
(dp139
bg54
g62
g129
g34
(g120
g67
(I3
tp140
Rp141
(dp142
btp143
Rp144
(dp145
btp146
Rp147
(dp148
bg1
(g67
(I-6
tp149
Rp150
(dp151
bg54
g2
(S'Den2'
p152
tp153
Rp154
(dp155
g7
g8
(g9
g10
(dp156
g12
I01
sg13
Nsg14
I01
sg16
Nsg17
Nsg22
I01
sg20
I01
sg57
Nsg24
I00
stp157
Rp158
sbg2
(S'Den6'
p159
tp160
Rp161
(dp162
g7
g8
(g9
g10
(dp163
g12
I01
sg13
Nsg14
I01
sg16
Nsg17
Nsg22
I01
sg20
I01
sg57
Nsg24
I00
stp164
Rp165
sbg29
g34
(g37
g67
(I-4
tp166
Rp167
(dp168
btp169
Rp170
(dp171
btp172
Rp173
(dp174
bg1
(g44
g154
g2
(S'Num8'
p175
tp176
Rp177
(dp178
g7
g8
(g9
g10
(dp179
g12
I01
sg13
Nsg14
I01
sg16
Nsg17
Nsg22
I01
sg20
I01
sg24
I00
stp180
Rp181
sbg72
tp182
Rp183
(dp184
bg1
(g67
(I-35
tp185
Rp186
(dp187
bg62
g34
(g37
g67
(I-8
tp188
Rp189
(dp190
btp191
Rp192
(dp193
bg34
(g54
g138
tp194
Rp195
(dp196
bg34
(g154
g141
tp197
Rp198
(dp199
btp200
Rp201
(dp202
bg1
(g44
g94
g2
(S'Num6'
p203
tp204
Rp205
(dp206
g7
g8
(g9
g10
(dp207
g12
I01
sg13
Nsg14
I01
sg16
Nsg17
Nsg22
I01
sg20
I01
sg24
I00
stp208
Rp209
sbg72
tp210
Rp211
(dp212
bg1
(g116
g154
g161
g62
g129
g132
tp213
Rp214
(dp215
bg1
(g67
(I15
tp216
Rp217
(dp218
bg62
g34
(g37
g67
(I-7
tp219
Rp220
(dp221
btp222
Rp223
(dp224
bg195
g34
(g120
g90
tp225
Rp226
(dp227
btp228
Rp229
(dp230
bg1
(g67
(I-30
tp231
Rp232
(dp233
bg94
g62
g34
(g37
g150
tp234
Rp235
(dp236
bg132
g34
(g154
g90
tp237
Rp238
(dp239
btp240
Rp241
(dp242
bg1
(g107
g94
g2
(S'Num2'
p243
tp244
Rp245
(dp246
g7
g8
(g9
g10
(dp247
g12
I01
sg13
Nsg14
I01
sg16
Nsg17
Nsg22
I01
sg20
I01
sg24
I00
stp248
Rp249
sbg170
g238
tp250
Rp251
(dp252
bg1
(g67
(I8
tp253
Rp254
(dp255
bg154
g29
g34
(g37
g67
(I-9
tp256
Rp257
(dp258
btp259
Rp260
(dp261
bg34
(g54
g67
(I7
tp262
Rp263
(dp264
btp265
Rp266
(dp267
btp268
Rp269
(dp270
bg1
(g67
(I6
tp271
Rp272
(dp273
bg245
g129
g132
g226
tp274
Rp275
(dp276
bg1
(g44
g101
g2
(S'Num5'
p277
tp278
Rp279
(dp280
g7
g8
(g9
g10
(dp281
g12
I01
sg13
Nsg14
I01
sg16
Nsg17
Nsg22
I01
sg20
I01
sg24
I00
stp282
Rp283
sbg72
tp284
Rp285
(dp286
bg1
(g107
g161
g245
g170
g132
tp287
Rp288
(dp289
bg1
(g44
g29
g34
(g37
g67
(I-10
tp290
Rp291
(dp292
btp293
Rp294
(dp295
bg34
(g54
g67
(I9
tp296
Rp297
(dp298
btp299
Rp300
(dp301
btp302
Rp303
(dp304
bg1
(g107
g54
g279
g170
g238
tp305
Rp306
(dp307
bg1
(g107
g101
g29
g170
g238
tp308
Rp309
(dp310
bg1
(g67
(I20
tp311
Rp312
(dp313
bg29
g223
g34
(g54
g141
tp314
Rp315
(dp316
bg198
tp317
Rp318
(dp319
bg1
(g62
g34
(g37
g67
(I-11
tp320
Rp321
(dp322
btp323
Rp324
(dp325
bg34
(g54
g84
tp326
Rp327
(dp328
btp329
Rp330
(dp331
bg1
(g107
g94
g2
(S'Num4'
p332
tp333
Rp334
(dp335
g7
g8
(g9
g10
(dp336
g12
I01
sg13
Nsg14
I01
sg16
Nsg17
Nsg22
I01
sg20
I01
sg24
I00
stp337
Rp338
sbg170
g132
tp339
Rp340
(dp341
bg1
(g272
g101
g62
g223
g34
(g54
g67
(I5
tp342
Rp343
(dp344
btp345
Rp346
(dp347
btp348
Rp349
(dp350
bg1
(g126
g154
g334
g235
g195
tp351
Rp352
(dp353
bg1
(g150
g54
g154
g101
g245
g170
tp354
Rp355
(dp356
bg1
(g334
g110
g226
tp357
Rp358
(dp359
bg1
(g44
g62
g235
g34
(g154
g343
tp360
Rp361
(dp362
btp363
Rp364
(dp365
bg1
(g150
g54
g154
g94
g2
(S'Num3'
p366
tp367
Rp368
(dp369
g7
g8
(g9
g10
(dp370
g12
I01
sg13
Nsg14
I01
sg16
Nsg17
Nsg22
I01
sg20
I01
sg24
I00
stp371
Rp372
sbg170
tp373
Rp374
(dp375
bg1
(g116
g154
g94
g245
g129
g132
tp376
Rp377
(dp378
bg1
(g44
g161
g334
g72
tp379
Rp380
(dp381
bg1
(g67
(I-20
tp382
Rp383
(dp384
bg120
g94
g62
g235
g315
tp385
Rp386
(dp387
bg1
(g272
g94
g29
g223
g346
tp388
Rp389
(dp390
bg1
(g107
g161
g62
g170
g238
tp391
Rp392
(dp393
bg1
(g90
g154
g101
g368
g110
tp394
Rp395
(dp396
bg1
(g107
g54
g368
g170
g226
tp397
Rp398
(dp399
bg1
(g90
g54
g2
(S'Den7'
p400
tp401
Rp402
(dp403
g7
g8
(g9
g10
(dp404
g12
I01
sg13
Nsg14
I01
sg16
Nsg17
Nsg22
I01
sg20
I01
sg57
Nsg24
I00
stp405
Rp406
sbg245
g110
tp407
Rp408
(dp409
bg1
(g67
(I-42
tp410
Rp411
(dp412
bg154
g120
g62
g192
g346
tp413
Rp414
(dp415
bg1
(g272
g120
g245
g223
g346
tp416
Rp417
(dp418
bg1
(g90
g120
g94
g368
g110
tp419
Rp420
(dp421
bg1
(g272
g62
g129
g238
g226
tp422
Rp423
(dp424
bg1
(g150
g54
g154
g120
g334
g170
tp425
Rp426
(dp427
bg1
(g272
g62
g129
g132
g34
(g94
g90
tp428
Rp429
(dp430
btp431
Rp432
(dp433
bg1
(g90
g54
g2
(S'Den9'
p434
tp435
Rp436
(dp437
g7
g8
(g9
g10
(dp438
g12
I01
sg13
Nsg14
I01
sg16
Nsg17
Nsg22
I01
sg20
I01
sg57
Nsg24
I00
stp439
Rp440
sbg62
g110
tp441
Rp442
(dp443
bg1
(g217
g245
g223
g195
g238
tp444
Rp445
(dp446
bg1
(g245
g129
g34
(g154
g138
tp447
Rp448
(dp449
btp450
Rp451
(dp452
bg1
(g220
g154
g245
g192
g34
(g54
g272
tp453
Rp454
(dp455
btp456
Rp457
(dp458
bg1
(g254
g120
g62
g260
g266
tp459
Rp460
(dp461
bg1
(g44
g402
g368
g72
tp462
Rp463
(dp464
bg1
(g62
g110
g34
(g101
g90
tp465
Rp466
(dp467
btp468
Rp469
(dp470
bg1
(g90
g154
g402
g29
g110
tp471
Rp472
(dp473
bg1
(g257
g154
g62
g294
g34
(g54
g254
tp474
Rp475
(dp476
btp477
Rp478
(dp479
bg1
(g272
g334
g129
g132
g238
tp480
Rp481
(dp482
bg1
(g90
g94
g161
g62
g110
tp483
Rp484
(dp485
bg1
(g138
g402
g62
g129
g315
tp486
Rp487
(dp488
bg1
(g67
(I-21
tp489
Rp490
(dp491
bg29
g192
g346
g238
tp492
Rp493
(dp494
bg1
(g2
(S'Num10'
p495
tp496
Rp497
(dp498
g7
g8
(g9
g10
(dp499
g12
I01
sg13
Nsg14
I01
sg16
Nsg17
Nsg22
I01
sg20
I01
sg24
I00
stp500
Rp501
sbg47
tp502
Rp503
(dp504
bg1
(g383
g154
g94
g29
g235
g315
tp505
Rp506
(dp507
bg1
(g44
g2
(S'Num7'
p508
tp509
Rp510
(dp511
g7
g8
(g9
g10
(dp512
g12
I01
sg13
Nsg14
I01
sg16
Nsg17
Nsg22
I01
sg20
I01
sg24
I00
stp513
Rp514
sbg170
g315
tp515
Rp516
(dp517
bg1
(g116
g54
g120
g245
g129
g238
tp518
Rp519
(dp520
bg1
(g220
g94
g62
g192
g454
tp521
Rp522
(dp523
bg1
(g107
g2
(S'Den8'
p524
tp525
Rp526
(dp527
g7
g8
(g9
g10
(dp528
g12
I01
sg13
Nsg14
I01
sg16
Nsg17
Nsg22
I01
sg20
I01
sg57
Nsg24
I00
stp529
Rp530
sbg62
g170
g132
tp531
Rp532
(dp533
bg1
(g232
g120
g29
g235
g132
g238
tp534
Rp535
(dp536
bg1
(g67
(I60
tp537
Rp538
(dp539
bg120
g62
g223
g315
g238
tp540
Rp541
(dp542
bg1
(g150
g54
g94
g101
g62
g170
tp543
Rp544
(dp545
bg1
(g291
g245
g235
g132
g198
tp546
Rp547
(dp548
bg1
(g107
g120
g279
g170
g132
tp549
Rp550
(dp551
bg1
(g67
(I30
tp552
Rp553
(dp554
bg154
g94
g62
g223
g195
tp555
Rp556
(dp557
bg1
(g126
g120
g368
g235
g195
tp558
Rp559
(dp560
bg1
(g44
g2
(S'Den10'
p561
tp562
Rp563
(dp564
g7
g8
(g9
g10
(dp565
g12
I01
sg13
Nsg14
I01
sg16
Nsg17
Nsg22
I01
sg20
I01
sg57
Nsg24
I00
stp566
Rp567
sbg62
g72
tp568
Rp569
(dp570
bg1
(g90
g154
g120
g279
g110
tp571
Rp572
(dp573
bg1
(g383
g154
g101
g62
g235
g315
tp574
Rp575
(dp576
bg1
(g90
g54
g94
g279
g110
tp577
Rp578
(dp579
bg1
(g90
g54
g161
g368
g110
tp580
Rp581
(dp582
bg1
(g44
g334
g170
g198
tp583
Rp584
(dp585
bg1
(g138
g161
g29
g129
g315
tp586
Rp587
(dp588
bg1
(g90
g120
g101
g245
g110
tp589
Rp590
(dp591
bg1
(g383
g154
g120
g245
g235
g315
tp592
Rp593
(dp594
bg1
(g90
g54
g101
g334
g110
tp595
Rp596
(dp597
bg1
(g116
g154
g120
g368
g129
g132
tp598
Rp599
(dp600
bg1
(g138
g154
g279
g129
g315
tp601
Rp602
(dp603
bg1
(g116
g54
g101
g62
g129
g238
tp604
Rp605
(dp606
bg1
(g44
g279
g235
g346
tp607
Rp608
(dp609
bg1
(g291
g29
g235
g315
g226
tp610
Rp611
(dp612
bg1
(g232
g154
g62
g235
g132
g226
tp613
Rp614
(dp615
bg1
(g126
g94
g245
g235
g195
tp616
Rp617
(dp618
bg1
(g90
g154
g94
g334
g110
tp619
Rp620
(dp621
bg1
(g205
g110
g238
tp622
Rp623
(dp624
bg1
(g116
g154
g101
g29
g129
g132
tp625
Rp626
(dp627
bg1
(g107
g154
g245
g170
g226
tp628
Rp629
(dp630
bg1
(g44
g526
g245
g72
tp631
Rp632
(dp633
bg1
(g116
g54
g94
g29
g129
g238
tp634
Rp635
(dp636
bg1
(g138
g94
g62
g129
g198
tp637
Rp638
(dp639
bg1
(g90
g54
g154
g510
g110
tp640
Rp641
(dp642
bg1
(g67
(I28
tp643
Rp644
(dp645
bg62
g260
g454
g238
tp646
Rp647
(dp648
bg1
(g272
g154
g368
g223
g346
tp649
Rp650
(dp651
bg1
(g107
g101
g368
g170
g132
tp652
Rp653
(dp654
bg1
(g107
g402
g29
g170
g132
tp655
Rp656
(dp657
bg1
(g138
g120
g334
g129
g315
tp658
Rp659
(dp660
bg1
(g90
g120
g161
g29
g110
tp661
Rp662
(dp663
bg1
(g138
g94
g368
g129
g315
tp664
Rp665
(dp666
bg1
(g126
g101
g29
g235
g195
tp667
Rp668
(dp669
bg1
(g107
g154
g205
g170
g132
tp670
Rp671
(dp672
bg1
(g150
g54
g120
g94
g245
g170
tp673
Rp674
(dp675
bg1
(g107
g154
g62
g170
g429
tp676
Rp677
(dp678
bg1
(g90
g120
g402
g62
g110
tp679
Rp680
(dp681
bg1
(g291
g368
g235
g315
g238
tp682
Rp683
(dp684
bg1
(g90
g154
g161
g245
g110
tp685
Rp686
(dp687
bg1
(g245
g110
g429
tp688
Rp689
(dp690
bg1
(g245
g260
g475
tp691
Rp692
(dp693
bg1
(g44
g436
g29
g72
tp694
Rp695
(dp696
bg1
(g150
g54
g120
g101
g29
g170
tp697
Rp698
(dp699
bg1
(g205
g129
g195
tp700
Rp701
(dp702
bg1
(g138
g101
g245
g129
g315
tp703
Rp704
(dp705
bg1
(g107
g54
g29
g170
g429
tp706
Rp707
(dp708
bg1
(g150
g154
g120
g94
g29
g170
tp709
Rp710
(dp711
bg1
(g138
g54
g368
g129
g198
tp712
Rp713
(dp714
bg1
(g150
g54
g120
g161
g62
g170
tp715
Rp716
(dp717
bg1
(g44
g368
g192
g266
tp718
Rp719
(dp720
bg1
(g150
g54
g154
g402
g62
g170
tp721
Rp722
(dp723
bg1
(g44
g29
g170
g144
tp724
Rp725
(dp726
bg1
(g90
g54
g120
g205
g110
tp727
Rp728
(dp729
bg1
(g116
g54
g154
g29
g129
g226
tp730
Rp731
(dp732
bg1
(g90
g54
g526
g29
g110
tp733
Rp734
(dp735
bg1
(g67
(I24
tp736
Rp737
(dp738
bg54
g154
g120
g94
g62
g129
tp739
Rp740
(dp741
bg1
(g150
g154
g120
g101
g62
g170
tp742
Rp743
(dp744
bg1
(g334
g223
g454
tp745
Rp746
(dp747
bg1
(g90
g154
g526
g62
g110
tp748
Rp749
(dp750
bg1
(g138
g120
g29
g129
g198
tp751
Rp752
(dp753
bg1
(g126
g161
g62
g235
g195
tp754
Rp755
(dp756
bg1
(g107
g120
g368
g170
g238
tp757
Rp758
(dp759
bg1
(g44
g120
g510
g72
tp760
Rp761
(dp762
bg1
(g107
g94
g62
g170
g226
tp763
Rp764
(dp765
bg1
(g383
g54
g120
g62
g235
g198
tp766
Rp767
(dp768
bg1
(g126
g54
g29
g235
g448
tp769
Rp770
(dp771
bg1
(g44
g54
g2
(S'Num9'
p772
tp773
Rp774
(dp775
g7
g8
(g9
g10
(dp776
g12
I01
sg13
Nsg14
I01
sg16
Nsg17
Nsg22
I01
sg20
I01
sg24
I00
stp777
Rp778
sbg72
tp779
Rp780
(dp781
bg1
(g553
g154
g120
g29
g223
g195
tp782
Rp783
(dp784
bg1
(g177
g110
g132
tp785
Rp786
(dp787
bg1
(g217
g62
g223
g132
g448
tp788
Rp789
(dp790
bg1
(g116
g120
g101
g62
g129
g132
tp791
Rp792
(dp793
bg1
(g220
g120
g29
g192
g454
tp794
Rp795
(dp796
btp797
Rp798
(dp799
btp800
Rp801
(dp802
bg1
(g34
(g5
g263
tp803
Rp804
(dp805
bg0
(g1
(g44
g94
g368
g72
tp806
Rp807
(dp808
bg1
(g90
g54
g161
g62
g110
tp809
Rp810
(dp811
bg1
(g44
g154
g279
g72
tp812
Rp813
(dp814
bg1
(g29
g223
g454
tp815
Rp816
(dp817
bg1
(g44
g120
g334
g72
tp818
Rp819
(dp820
bg1
(g138
g120
g29
g129
g315
tp821
Rp822
(dp823
bg1
(g44
g245
g235
g346
tp824
Rp825
(dp826
bg1
(g90
g154
g94
g29
g110
tp827
Rp828
(dp829
bg1
(g44
g54
g205
g72
tp830
Rp831
(dp832
bg1
(g272
g154
g62
g223
g346
tp833
Rp834
(dp835
bg1
(g44
g62
g192
g266
tp836
Rp837
(dp838
bg1
(g107
g154
g368
g170
g132
tp839
Rp840
(dp841
bg1
(g291
g62
g235
g315
g238
tp842
Rp843
(dp844
bg1
(g279
g110
g132
tp845
Rp846
(dp847
bg1
(g29
g110
g226
tp848
Rp849
(dp850
bg1
(g90
g120
g94
g62
g110
tp851
Rp852
(dp853
bg1
(g44
g161
g29
g72
tp854
Rp855
(dp856
bg1
(g138
g94
g62
g129
g315
tp857
Rp858
(dp859
bg1
(g44
g101
g245
g72
tp860
Rp861
(dp862
bg1
(g150
g54
g154
g120
g29
g170
tp863
Rp864
(dp865
bg1
(g107
g120
g245
g170
g132
tp866
Rp867
(dp868
bg1
(g510
g47
tp869
Rp870
(dp871
bg1
(g272
g29
g129
g132
g238
tp872
Rp873
(dp874
bg1
(g44
g334
g170
g315
tp875
Rp876
(dp877
bg1
(g116
g154
g120
g62
g129
g132
tp878
Rp879
(dp880
bg1
(g90
g54
g94
g245
g110
tp881
Rp882
(dp883
bg1
(g107
g101
g62
g170
g132
tp884
Rp885
(dp886
bg1
(g107
g94
g29
g170
g132
tp887
Rp888
(dp889
bg1
(g90
g54
g101
g29
g110
tp890
Rp891
(dp892
bg1
(g126
g154
g29
g235
g195
tp893
Rp894
(dp895
bg1
(g368
g129
g195
tp896
Rp897
(dp898
bg1
(g107
g120
g62
g170
g238
tp899
Rp900
(dp901
bg1
(g150
g54
g154
g94
g62
g170
tp902
Rp903
(dp904
bg1
(g90
g54
g120
g368
g110
tp905
Rp906
(dp907
bg1
(g90
g154
g120
g245
g110
tp908
Rp909
(dp910
bg1
(g368
g110
g238
tp911
Rp912
(dp913
bg1
(g126
g120
g62
g235
g195
tp914
Rp915
(dp916
bg1
(g44
g402
g62
g72
tp917
Rp918
(dp919
bg1
(g138
g154
g245
g129
g315
tp920
Rp921
(dp922
bg1
(g138
g54
g62
g129
g198
tp923
Rp924
(dp925
bg1
(g90
g154
g101
g62
g110
tp926
Rp927
(dp928
bg1
(g107
g54
g62
g170
g226
tp929
Rp930
(dp931
bg1
(g44
g29
g170
g198
tp932
Rp933
(dp934
bg1
(g107
g54
g245
g170
g238
tp935
Rp936
(dp937
bg1
(g90
g54
g154
g334
g110
tp938
Rp939
(dp940
btp941
Rp942
(dp943
btp944
Rp945
(dp946
bg1
(g34
(g5
g343
tp947
Rp948
(dp949
bg0
(g1
(g279
g47
tp950
Rp951
(dp952
bg1
(g368
g110
g132
tp953
Rp954
(dp955
bg1
(g44
g245
g170
g315
tp956
Rp957
(dp958
bg1
(g90
g154
g120
g62
g110
tp959
Rp960
(dp961
bg1
(g107
g154
g29
g170
g132
tp962
Rp963
(dp964
bg1
(g44
g154
g368
g72
tp965
Rp966
(dp967
bg1
(g44
g120
g245
g72
tp968
Rp969
(dp970
bg1
(g29
g129
g195
tp971
Rp972
(dp973
bg1
(g107
g54
g62
g170
g238
tp974
Rp975
(dp976
bg1
(g138
g154
g62
g129
g315
tp977
Rp978
(dp979
bg1
(g90
g54
g154
g245
g110
tp980
Rp981
(dp982
bg1
(g44
g94
g29
g72
tp983
Rp984
(dp985
bg1
(g44
g54
g334
g72
tp986
Rp987
(dp988
bg1
(g29
g110
g238
tp989
Rp990
(dp991
bg1
(g107
g120
g62
g170
g132
tp992
Rp993
(dp994
bg1
(g90
g54
g94
g62
g110
tp995
Rp996
(dp997
bg1
(g44
g101
g62
g72
tp998
Rp999
(dp1000
bg1
(g90
g54
g120
g29
g110
tp1001
Rp1002
(dp1003
bg1
(g44
g62
g235
g346
tp1004
Rp1005
(dp1006
btp1007
Rp1008
(dp1009
btp1010
Rp1011
(dp1012
bg1
(g34
(g5
g67
(I11
tp1013
Rp1014
(dp1015
btp1016
Rp1017
(dp1018
bg0
(g1
(g644
g29
g260
g454
g238
tp1019
Rp1020
(dp1021
bg1
(g186
g29
g192
g195
g198
tp1022
Rp1023
(dp1024
bg1
(g90
g154
g94
g279
g110
tp1025
Rp1026
(dp1027
bg1
(g67
(I56
tp1028
Rp1029
(dp1030
bg62
g260
g346
g198
tp1031
Rp1032
(dp1033
bg1
(g116
g54
g94
g245
g129
g238
tp1034
Rp1035
(dp1036
bg1
(g116
g54
g154
g62
g129
g429
tp1037
Rp1038
(dp1039
bg1
(g107
g101
g62
g170
g226
tp1040
Rp1041
(dp1042
bg1
(g368
g110
g429
tp1043
Rp1044
(dp1045
bg1
(g217
g368
g223
g195
g238
tp1046
Rp1047
(dp1048
bg1
(g90
g120
g161
g245
g110
tp1049
Rp1050
(dp1051
bg1
(g90
g154
g436
g62
g110
tp1052
Rp1053
(dp1054
bg1
(g107
g402
g245
g170
g132
tp1055
Rp1056
(dp1057
bg1
(g383
g120
g94
g29
g235
g315
tp1058
Rp1059
(dp1060
bg1
(g138
g101
g62
g129
g198
tp1061
Rp1062
(dp1063
bg1
(g510
g129
g195
tp1064
Rp1065
(dp1066
bg1
(g220
g101
g62
g192
g454
tp1067
Rp1068
(dp1069
bg1
(g510
g110
g238
tp1070
Rp1071
(dp1072
bg1
(g90
g154
g120
g205
g110
tp1073
Rp1074
(dp1075
bg1
(g126
g54
g245
g235
g448
tp1076
Rp1077
(dp1078
bg1
(g383
g54
g94
g62
g235
g198
tp1079
Rp1080
(dp1081
bg1
(g107
g161
g368
g170
g132
tp1082
Rp1083
(dp1084
bg1
(g44
g245
g294
g300
tp1085
Rp1086
(dp1087
bg1
(g138
g161
g245
g129
g315
tp1088
Rp1089
(dp1090
bg1
(g44
g29
g235
g361
tp1091
Rp1092
(dp1093
bg1
(g257
g154
g29
g294
g475
tp1094
Rp1095
(dp1096
bg1
(g90
g154
g101
g334
g110
tp1097
Rp1098
(dp1099
bg1
(g553
g154
g101
g62
g223
g195
tp1100
Rp1101
(dp1102
bg1
(g107
g120
g62
g170
g429
tp1103
Rp1104
(dp1105
bg1
(g126
g101
g245
g235
g195
tp1106
Rp1107
(dp1108
bg1
(g90
g94
g161
g29
g110
tp1109
Rp1110
(dp1111
bg1
(g279
g223
g454
tp1112
Rp1113
(dp1114
bg1
(g383
g154
g120
g368
g235
g315
tp1115
Rp1116
(dp1117
bg1
(g107
g94
g279
g170
g132
tp1118
Rp1119
(dp1120
bg1
(g138
g101
g368
g129
g315
tp1121
Rp1122
(dp1123
bg1
(g312
g245
g223
g315
g198
tp1124
Rp1125
(dp1126
bg1
(g44
g154
g774
g72
tp1127
Rp1128
(dp1129
bg1
(g138
g94
g334
g129
g315
tp1130
Rp1131
(dp1132
bg1
(g150
g54
g120
g94
g368
g170
tp1133
Rp1134
(dp1135
bg1
(g44
g2
(S'Den11'
p1136
tp1137
Rp1138
(dp1139
g7
g8
(g9
g10
(dp1140
g12
I01
sg13
Nsg14
I01
sg16
Nsg17
Nsg22
I01
sg20
I01
sg57
Nsg24
I00
stp1141
Rp1142
sbg62
g72
tp1143
Rp1144
(dp1145
bg1
(g553
g154
g94
g29
g223
g195
tp1146
Rp1147
(dp1148
bg1
(g126
g94
g368
g235
g195
tp1149
Rp1150
(dp1151
bg1
(g90
g54
g120
g510
g110
tp1152
Rp1153
(dp1154
bg1
(g116
g154
g94
g368
g129
g132
tp1155
Rp1156
(dp1157
bg1
(g538
g120
g62
g223
g132
g198
tp1158
Rp1159
(dp1160
bg1
(g90
g54
g402
g368
g110
tp1161
Rp1162
(dp1163
bg1
(g107
g161
g29
g170
g238
tp1164
Rp1165
(dp1166
bg1
(g116
g54
g120
g368
g129
g238
tp1167
Rp1168
(dp1169
bg1
(g138
g402
g29
g129
g315
tp1170
Rp1171
(dp1172
bg1
(g44
g120
g177
g72
tp1173
Rp1174
(dp1175
bg1
(g116
g154
g161
g29
g129
g132
tp1176
Rp1177
(dp1178
bg1
(g291
g245
g235
g315
g226
tp1179
Rp1180
(dp1181
bg1
(g90
g101
g161
g62
g110
tp1182
Rp1183
(dp1184
bg1
(g138
g154
g62
g129
g144
tp1185
Rp1186
(dp1187
bg1
(g272
g120
g368
g223
g346
tp1188
Rp1189
(dp1190
bg1
(g150
g54
g154
g526
g62
g170
tp1191
Rp1192
(dp1193
bg1
(g44
g62
g34
(g37
g67
(I-12
tp1194
Rp1195
(dp1196
btp1197
Rp1198
(dp1199
bg34
(g54
g1014
tp1200
Rp1201
(dp1202
btp1203
Rp1204
(dp1205
bg1
(g150
g54
g154
g120
g279
g170
tp1206
Rp1207
(dp1208
bg1
(g116
g54
g94
g62
g129
g226
tp1209
Rp1210
(dp1211
bg1
(g220
g120
g245
g192
g454
tp1212
Rp1213
(dp1214
bg1
(g67
(I-36
tp1215
Rp1216
(dp1217
bg62
g294
g266
g238
tp1218
Rp1219
(dp1220
bg1
(g44
g334
g192
g266
tp1221
Rp1222
(dp1223
bg1
(g116
g54
g161
g62
g129
g238
tp1224
Rp1225
(dp1226
bg1
(g291
g334
g235
g315
g238
tp1227
Rp1228
(dp1229
bg1
(g90
g54
g101
g279
g110
tp1230
Rp1231
(dp1232
bg1
(g107
g94
g368
g170
g238
tp1233
Rp1234
(dp1235
bg1
(g138
g154
g205
g129
g315
tp1236
Rp1237
(dp1238
bg1
(g232
g154
g29
g235
g132
g226
tp1239
Rp1240
(dp1241
bg1
(g116
g154
g402
g62
g129
g132
tp1242
Rp1243
(dp1244
bg1
(g90
g120
g526
g62
g110
tp1245
Rp1246
(dp1247
bg1
(g116
g120
g94
g62
g129
g238
tp1248
Rp1249
(dp1250
bg1
(g272
g54
g62
g223
g361
tp1251
Rp1252
(dp1253
bg1
(g138
g54
g29
g129
g144
tp1254
Rp1255
(dp1256
bg1
(g107
g154
g510
g170
g132
tp1257
Rp1258
(dp1259
bg1
(g44
g526
g368
g72
tp1260
Rp1261
(dp1262
bg1
(g150
g154
g94
g101
g62
g170
tp1263
Rp1264
(dp1265
bg1
(g44
g101
g205
g72
tp1266
Rp1267
(dp1268
bg1
(g90
g94
g402
g62
g110
tp1269
Rp1270
(dp1271
bg1
(g44
g94
g510
g72
tp1272
Rp1273
(dp1274
bg1
(g217
g29
g223
g132
g448
tp1275
Rp1276
(dp1277
bg1
(g29
g324
g327
tp1278
Rp1279
(dp1280
bg1
(g368
g260
g475
tp1281
Rp1282
(dp1283
bg1
(g254
g120
g29
g260
g266
tp1284
Rp1285
(dp1286
bg1
(g1029
g154
g120
g62
g260
g454
tp1287
Rp1288
(dp1289
bg1
(g538
g94
g62
g223
g315
g238
tp1290
Rp1291
(dp1292
bg1
(g138
g120
g245
g129
g198
tp1293
Rp1294
(dp1295
bg1
(g538
g154
g62
g223
g315
g226
tp1296
Rp1297
(dp1298
bg1
(g254
g154
g245
g260
g266
tp1299
Rp1300
(dp1301
bg1
(g44
g177
g170
g315
tp1302
Rp1303
(dp1304
bg1
(g107
g101
g245
g170
g238
tp1305
Rp1306
(dp1307
bg1
(g107
g120
g334
g170
g238
tp1308
Rp1309
(dp1310
bg1
(g232
g94
g29
g235
g132
g238
tp1311
Rp1312
(dp1313
bg1
(g150
g54
g120
g402
g62
g170
tp1314
Rp1315
(dp1316
bg1
(g138
g94
g29
g129
g198
tp1317
Rp1318
(dp1319
bg1
(g220
g94
g29
g192
g454
tp1320
Rp1321
(dp1322
bg1
(g116
g54
g154
g245
g129
g226
tp1323
Rp1324
(dp1325
bg1
(g490
g62
g192
g346
g226
tp1326
Rp1327
(dp1328
bg1
(g383
g154
g101
g29
g235
g315
tp1329
Rp1330
(dp1331
bg1
(g107
g54
g334
g170
g226
tp1332
Rp1333
(dp1334
bg1
(g126
g120
g62
g235
g448
tp1335
Rp1336
(dp1337
bg1
(g116
g120
g101
g29
g129
g132
tp1338
Rp1339
(dp1340
bg1
(g44
g436
g245
g72
tp1341
Rp1342
(dp1343
bg1
(g279
g110
g226
tp1344
Rp1345
(dp1346
bg1
(g383
g54
g120
g29
g235
g198
tp1347
Rp1348
(dp1349
bg1
(g383
g154
g161
g62
g235
g315
tp1350
Rp1351
(dp1352
bg1
(g272
g94
g245
g223
g346
tp1353
Rp1354
(dp1355
bg1
(g116
g120
g161
g62
g129
g132
tp1356
Rp1357
(dp1358
bg1
(g186
g62
g192
g315
g448
tp1359
Rp1360
(dp1361
bg1
(g150
g54
g154
g161
g245
g170
tp1362
Rp1363
(dp1364
bg1
(g553
g120
g94
g62
g223
g195
tp1365
Rp1366
(dp1367
bg1
(g67
(I-60
tp1368
Rp1369
(dp1370
bg154
g120
g94
g62
g235
g132
tp1371
Rp1372
(dp1373
bg1
(g116
g154
g101
g245
g129
g132
tp1374
Rp1375
(dp1376
bg1
(g90
g154
g402
g245
g110
tp1377
Rp1378
(dp1379
bg1
(g90
g54
g526
g245
g110
tp1380
Rp1381
(dp1382
bg1
(g107
g101
g334
g170
g132
tp1383
Rp1384
(dp1385
bg1
(g774
g110
g132
tp1386
Rp1387
(dp1388
bg1
(g107
g54
g205
g170
g238
tp1389
Rp1390
(dp1391
bg1
(g737
g54
g154
g120
g101
g62
g129
tp1392
Rp1393
(dp1394
bg1
(g84
g154
g62
g324
g300
tp1395
Rp1396
(dp1397
bg1
(g138
g526
g62
g129
g315
tp1398
Rp1399
(dp1400
bg1
(g272
g154
g334
g223
g346
tp1401
Rp1402
(dp1403
bg1
(g538
g120
g29
g223
g315
g238
tp1404
Rp1405
(dp1406
bg1
(g232
g120
g245
g235
g132
g238
tp1407
Rp1408
(dp1409
bg1
(g411
g154
g94
g62
g192
g346
tp1410
Rp1411
(dp1412
bg1
(g90
g154
g161
g368
g110
tp1413
Rp1414
(dp1415
bg1
(g150
g154
g120
g94
g245
g170
tp1416
Rp1417
(dp1418
bg1
(g257
g120
g62
g294
g475
tp1419
Rp1420
(dp1421
bg1
(g150
g54
g94
g101
g29
g170
tp1422
Rp1423
(dp1424
bg1
(g44
g245
g170
g144
tp1425
Rp1426
(dp1427
bg1
(g29
g110
g466
tp1428
Rp1429
(dp1430
bg1
(g107
g54
g245
g170
g429
tp1431
Rp1432
(dp1433
bg1
(g411
g154
g120
g29
g192
g346
tp1434
Rp1435
(dp1436
bg1
(g150
g154
g120
g161
g62
g170
tp1437
Rp1438
(dp1439
bg1
(g44
g563
g29
g72
tp1440
Rp1441
(dp1442
bg1
(g138
g120
g279
g129
g315
tp1443
Rp1444
(dp1445
bg1
(g368
g129
g448
tp1446
Rp1447
(dp1448
bg1
(g44
g54
g497
g72
tp1449
Rp1450
(dp1451
bg1
(g150
g54
g120
g161
g29
g170
tp1452
Rp1453
(dp1454
bg1
(g107
g402
g62
g170
g238
tp1455
Rp1456
(dp1457
bg1
(g90
g120
g94
g334
g110
tp1458
Rp1459
(dp1460
bg1
(g150
g54
g154
g101
g368
g170
tp1461
Rp1462
(dp1463
bg1
(g272
g101
g29
g223
g346
tp1464
Rp1465
(dp1466
bg1
(g90
g154
g526
g29
g110
tp1467
Rp1468
(dp1469
bg1
(g116
g120
g94
g245
g129
g132
tp1470
Rp1471
(dp1472
bg1
(g383
g120
g101
g62
g235
g315
tp1473
Rp1474
(dp1475
bg1
(g272
g279
g129
g132
g238
tp1476
Rp1477
(dp1478
bg1
(g291
g62
g235
g132
g144
tp1479
Rp1480
(dp1481
bg1
(g126
g120
g334
g235
g195
tp1482
Rp1483
(dp1484
bg1
(g107
g526
g29
g170
g132
tp1485
Rp1486
(dp1487
bg1
(g126
g402
g62
g235
g195
tp1488
Rp1489
(dp1490
bg1
(g272
g29
g129
g132
g429
tp1491
Rp1492
(dp1493
bg1
(g490
g245
g192
g346
g238
tp1494
Rp1495
(dp1496
bg1
(g90
g94
g101
g245
g110
tp1497
Rp1498
(dp1499
bg1
(g44
g205
g235
g346
tp1500
Rp1501
(dp1502
bg1
(g90
g54
g154
g177
g110
tp1503
Rp1504
(dp1505
bg1
(g254
g94
g62
g260
g266
tp1506
Rp1507
(dp1508
bg1
(g90
g54
g161
g334
g110
tp1509
Rp1510
(dp1511
bg1
(g116
g154
g120
g334
g129
g132
tp1512
Rp1513
(dp1514
bg1
(g217
g29
g223
g195
g226
tp1515
Rp1516
(dp1517
bg1
(g220
g154
g368
g192
g454
tp1518
Rp1519
(dp1520
bg1
(g90
g120
g402
g29
g110
tp1521
Rp1522
(dp1523
bg1
(g107
g94
g29
g170
g226
tp1524
Rp1525
(dp1526
bg1
(g291
g62
g235
g315
g429
tp1527
Rp1528
(dp1529
bg1
(g272
g29
g129
g238
g226
tp1530
Rp1531
(dp1532
bg1
(g232
g54
g62
g235
g238
g226
tp1533
Rp1534
(dp1535
bg1
(g67
(I-105
tp1536
Rp1537
(dp1538
bg120
g62
g192
g195
g238
tp1539
Rp1540
(dp1541
bg1
(g138
g54
g334
g129
g198
tp1542
Rp1543
(dp1544
bg1
(g272
g368
g129
g132
g226
tp1545
Rp1546
(dp1547
bg1
(g107
g54
g62
g170
g466
tp1548
Rp1549
(dp1550
bg1
(g150
g154
g120
g101
g29
g170
tp1551
Rp1552
(dp1553
bg1
(g107
g436
g62
g170
g132
tp1554
Rp1555
(dp1556
bg1
(g44
g161
g279
g72
tp1557
Rp1558
(dp1559
bg1
(g2
(S'Num11'
p1560
tp1561
Rp1562
(dp1563
g7
g8
(g9
g10
(dp1564
g12
I01
sg13
Nsg14
I01
sg16
Nsg17
Nsg22
I01
sg20
I01
sg24
I00
stp1565
Rp1566
sbg47
tp1567
Rp1568
(dp1569
bg1
(g107
g154
g368
g170
g226
tp1570
Rp1571
(dp1572
bg1
(g150
g54
g154
g402
g29
g170
tp1573
Rp1574
(dp1575
bg1
(g116
g54
g101
g29
g129
g238
tp1576
Rp1577
(dp1578
bg1
(g90
g54
g563
g62
g110
tp1579
Rp1580
(dp1581
bg1
(g90
g54
g94
g205
g110
tp1582
Rp1583
(dp1584
bg1
(g150
g54
g94
g161
g62
g170
tp1585
Rp1586
(dp1587
bg1
(g116
g94
g101
g62
g129
g132
tp1588
Rp1589
(dp1590
bg1
(g272
g161
g62
g223
g346
tp1591
Rp1592
(dp1593
bg1
(g44
g279
g170
g198
tp1594
Rp1595
(dp1596
bg1
(g232
g101
g62
g235
g132
g238
tp1597
Rp1598
(dp1599
bg1
(g90
g120
g101
g368
g110
tp1600
Rp1601
(dp1602
bg1
(g553
g154
g120
g245
g223
g195
tp1603
Rp1604
(dp1605
bg1
(g737
g54
g154
g120
g94
g29
g129
tp1606
Rp1607
(dp1608
bg1
(g44
g402
g334
g72
tp1609
Rp1610
(dp1611
bg1
(g291
g368
g235
g132
g198
tp1612
Rp1613
(dp1614
bg1
(g107
g120
g205
g170
g132
tp1615
Rp1616
(dp1617
bg1
(g107
g154
g29
g170
g429
tp1618
Rp1619
(dp1620
bg1
(g150
g54
g120
g101
g245
g170
tp1621
Rp1622
(dp1623
bg1
(g150
g54
g154
g94
g334
g170
tp1624
Rp1625
(dp1626
bg1
(g90
g54
g436
g29
g110
tp1627
Rp1628
(dp1629
bg1
(g126
g161
g29
g235
g195
tp1630
Rp1631
(dp1632
bg1
(g383
g154
g94
g245
g235
g315
tp1633
Rp1634
(dp1635
bg1
(g126
g154
g279
g235
g195
tp1636
Rp1637
(dp1638
btp1639
Rp1640
(dp1641
btp1642
Rp1643
(dp1644
bg1
(g34
(g5
g141
tp1645
Rp1646
(dp1647
bg0
(g1
(g44
g154
g29
g72
tp1648
Rp1649
(dp1650
bg1
(g44
g54
g245
g72
tp1651
Rp1652
(dp1653
bg1
(g90
g54
g154
g62
g110
tp1654
Rp1655
(dp1656
bg1
(g44
g120
g62
g72
tp1657
Rp1658
(dp1659
bg1
(g29
g110
g132
tp1660
Rp1661
(dp1662
bg1
(g44
g62
g170
g315
tp1663
Rp1664
(dp1665
bg1
(g368
g47
tp1666
Rp1667
(dp1668
btp1669
Rp1670
(dp1671
btp1672
Rp1673
(dp1674
bcsympy.series.order
Order
p1675
(g34
(g5
g67
(I13
tp1676
Rp1677
(dp1678
btp1679
Rp1680
(dp1681
bg5
tp1682
Rp1683
(dp1684
bg1
(g34
(g5
g90
tp1685
Rp1686
(dp1687
bg0
(g1
(g245
g47
tp1688
Rp1689
(dp1690
bg1
(g62
g110
g132
tp1691
Rp1692
(dp1693
bg1
(g44
g154
g62
g72
tp1694
Rp1695
(dp1696
bg1
(g44
g54
g29
g72
tp1697
Rp1698
(dp1699
btp1700
Rp1701
(dp1702
btp1703
Rp1704
(dp1705
bg1
(g34
(g5
g138
tp1706
Rp1707
(dp1708
bg0
(g1
(g44
g94
g62
g72
tp1709
Rp1710
(dp1711
bg1
(g44
g54
g368
g72
tp1712
Rp1713
(dp1714
bg1
(g62
g129
g195
tp1715
Rp1716
(dp1717
bg1
(g107
g154
g62
g170
g132
tp1718
Rp1719
(dp1720
bg1
(g90
g54
g154
g29
g110
tp1721
Rp1722
(dp1723
bg1
(g44
g120
g29
g72
tp1724
Rp1725
(dp1726
bg1
(g334
g47
tp1727
Rp1728
(dp1729
bg1
(g44
g154
g245
g72
tp1730
Rp1731
(dp1732
bg1
(g44
g29
g170
g315
tp1733
Rp1734
(dp1735
bg1
(g62
g110
g238
tp1736
Rp1737
(dp1738
bg1
(g245
g110
g132
tp1739
Rp1740
(dp1741
bg1
(g90
g54
g120
g62
g110
tp1742
Rp1743
(dp1744
btp1745
Rp1746
(dp1747
btp1748
Rp1749
(dp1750
bg1
(g34
(g5
g254
tp1751
Rp1752
(dp1753
bg0
(g1
(g90
g154
g120
g368
g110
tp1754
Rp1755
(dp1756
bg1
(g44
g29
g192
g266
tp1757
Rp1758
(dp1759
bg1
(g44
g279
g170
g315
tp1760
Rp1761
(dp1762
bg1
(g44
g368
g235
g346
tp1763
Rp1764
(dp1765
bg1
(g138
g101
g62
g129
g315
tp1766
Rp1767
(dp1768
bg1
(g116
g154
g94
g62
g129
g132
tp1769
Rp1770
(dp1771
bg1
(g334
g129
g195
tp1772
Rp1773
(dp1774
bg1
(g107
g94
g62
g170
g238
tp1775
Rp1776
(dp1777
bg1
(g44
g161
g245
g72
tp1778
Rp1779
(dp1780
bg1
(g107
g54
g368
g170
g238
tp1781
Rp1782
(dp1783
bg1
(g90
g154
g101
g29
g110
tp1784
Rp1785
(dp1786
bg1
(g90
g54
g101
g245
g110
tp1787
Rp1788
(dp1789
bg1
(g126
g120
g29
g235
g195
tp1790
Rp1791
(dp1792
bg1
(g107
g154
g334
g170
g132
tp1793
Rp1794
(dp1795
bg1
(g126
g154
g245
g235
g195
tp1796
Rp1797
(dp1798
bg1
(g138
g54
g29
g129
g198
tp1799
Rp1800
(dp1801
bg1
(g44
g54
g510
g72
tp1802
Rp1803
(dp1804
bg1
(g44
g402
g29
g72
tp1805
Rp1806
(dp1807
bg1
(g44
g94
g334
g72
tp1808
Rp1809
(dp1810
bg1
(g138
g94
g29
g129
g315
tp1811
Rp1812
(dp1813
bg1
(g217
g62
g223
g195
g238
tp1814
Rp1815
(dp1816
bg1
(g90
g54
g94
g368
g110
tp1817
Rp1818
(dp1819
bg1
(g90
g120
g101
g62
g110
tp1820
Rp1821
(dp1822
bg1
(g272
g120
g62
g223
g346
tp1823
Rp1824
(dp1825
bg1
(g138
g154
g368
g129
g315
tp1826
Rp1827
(dp1828
bg1
(g62
g260
g475
tp1829
Rp1830
(dp1831
bg1
(g291
g29
g235
g315
g238
tp1832
Rp1833
(dp1834
bg1
(g107
g54
g29
g170
g226
tp1835
Rp1836
(dp1837
bg1
(g245
g110
g226
tp1838
Rp1839
(dp1840
bg1
(g150
g54
g154
g120
g245
g170
tp1841
Rp1842
(dp1843
bg1
(g116
g154
g120
g29
g129
g132
tp1844
Rp1845
(dp1846
bg1
(g220
g154
g62
g192
g454
tp1847
Rp1848
(dp1849
bg1
(g150
g54
g120
g94
g62
g170
tp1850
Rp1851
(dp1852
bg1
(g138
g120
g245
g129
g315
tp1853
Rp1854
(dp1855
bg1
(g150
g54
g154
g101
g62
g170
tp1856
Rp1857
(dp1858
bg1
(g334
g110
g238
tp1859
Rp1860
(dp1861
bg1
(g62
g110
g429
tp1862
Rp1863
(dp1864
bg1
(g383
g154
g120
g62
g235
g315
tp1865
Rp1866
(dp1867
bg1
(g116
g54
g120
g62
g129
g238
tp1868
Rp1869
(dp1870
bg1
(g90
g54
g154
g279
g110
tp1871
Rp1872
(dp1873
bg1
(g177
g47
tp1874
Rp1875
(dp1876
bg1
(g107
g94
g245
g170
g132
tp1877
Rp1878
(dp1879
bg1
(g107
g120
g29
g170
g238
tp1880
Rp1881
(dp1882
bg1
(g272
g62
g129
g132
g226
tp1883
Rp1884
(dp1885
bg1
(g90
g54
g402
g62
g110
tp1886
Rp1887
(dp1888
bg1
(g126
g94
g62
g235
g195
tp1889
Rp1890
(dp1891
bg1
(g44
g154
g205
g72
tp1892
Rp1893
(dp1894
bg1
(g90
g120
g94
g29
g110
tp1895
Rp1896
(dp1897
bg1
(g150
g54
g154
g94
g29
g170
tp1898
Rp1899
(dp1900
bg1
(g291
g62
g235
g132
g198
tp1901
Rp1902
(dp1903
bg1
(g107
g154
g62
g170
g226
tp1904
Rp1905
(dp1906
bg1
(g90
g154
g161
g62
g110
tp1907
Rp1908
(dp1909
bg1
(g90
g54
g161
g29
g110
tp1910
Rp1911
(dp1912
bg1
(g44
g101
g368
g72
tp1913
Rp1914
(dp1915
bg1
(g107
g101
g29
g170
g132
tp1916
Rp1917
(dp1918
bg1
(g107
g161
g62
g170
g132
tp1919
Rp1920
(dp1921
bg1
(g44
g120
g279
g72
tp1922
Rp1923
(dp1924
bg1
(g44
g526
g62
g72
tp1925
Rp1926
(dp1927
bg1
(g272
g154
g29
g223
g346
tp1928
Rp1929
(dp1930
bg1
(g90
g54
g120
g334
g110
tp1931
Rp1932
(dp1933
bg1
(g245
g223
g454
tp1934
Rp1935
(dp1936
bg1
(g107
g120
g368
g170
g132
tp1937
Rp1938
(dp1939
bg1
(g90
g154
g94
g245
g110
tp1940
Rp1941
(dp1942
bg1
(g44
g245
g170
g198
tp1943
Rp1944
(dp1945
bg1
(g205
g110
g132
tp1946
Rp1947
(dp1948
bg1
(g272
g245
g129
g132
g238
tp1949
Rp1950
(dp1951
bg1
(g62
g129
g448
tp1952
Rp1953
(dp1954
btp1955
Rp1956
(dp1957
btp1958
Rp1959
(dp1960
bg1
(g34
(g5
g116
tp1961
Rp1962
(dp1963
bg0
(g1
(g553
g154
g101
g29
g223
g195
tp1964
Rp1965
(dp1966
bg1
(g107
g526
g62
g170
g238
tp1967
Rp1968
(dp1969
bg1
(g232
g54
g29
g235
g238
g226
tp1970
Rp1971
(dp1972
bg1
(g411
g154
g101
g62
g192
g346
tp1973
Rp1974
(dp1975
bg1
(g138
g526
g29
g129
g315
tp1976
Rp1977
(dp1978
bg1
(g220
g94
g245
g192
g454
tp1979
Rp1980
(dp1981
bg1
(g62
g34
(g37
g67
(I-13
tp1982
Rp1983
(dp1984
btp1985
Rp1986
(dp1987
bg34
(g54
g116
tp1988
Rp1989
(dp1990
btp1991
Rp1992
(dp1993
bg1
(g272
g94
g368
g223
g346
tp1994
Rp1995
(dp1996
bg1
(g232
g161
g62
g235
g132
g238
tp1997
Rp1998
(dp1999
bg1
(g44
g161
g205
g72
tp2000
Rp2001
(dp2002
bg1
(g150
g154
g120
g161
g29
g170
tp2003
Rp2004
(dp2005
bg1
(g138
g154
g29
g129
g144
tp2006
Rp2007
(dp2008
bg1
(g150
g54
g94
g161
g29
g170
tp2009
Rp2010
(dp2011
bg1
(g150
g54
g154
g161
g368
g170
tp2012
Rp2013
(dp2014
bg1
(g116
g120
g161
g29
g129
g132
tp2015
Rp2016
(dp2017
bg1
(g272
g402
g62
g223
g346
tp2018
Rp2019
(dp2020
bg1
(g90
g54
g436
g245
g110
tp2021
Rp2022
(dp2023
bg1
(g116
g54
g154
g29
g129
g429
tp2024
Rp2025
(dp2026
bg1
(g107
g94
g245
g170
g226
tp2027
Rp2028
(dp2029
bg1
(g126
g101
g368
g235
g195
tp2030
Rp2031
(dp2032
bg1
(g107
g54
g29
g170
g466
tp2033
Rp2034
(dp2035
bg1
(g245
g110
g466
tp2036
Rp2037
(dp2038
bg1
(g553
g54
g120
g62
g223
g448
tp2039
Rp2040
(dp2041
bg1
(g44
g1138
g29
g72
tp2042
Rp2043
(dp2044
bg1
(g272
g120
g334
g223
g346
tp2045
Rp2046
(dp2047
bg1
(g116
g54
g120
g334
g129
g238
tp2048
Rp2049
(dp2050
bg1
(g186
g245
g192
g195
g198
tp2051
Rp2052
(dp2053
bg1
(g138
g402
g245
g129
g315
tp2054
Rp2055
(dp2056
bg1
(g245
g324
g327
tp2057
Rp2058
(dp2059
bg1
(g257
g120
g29
g294
g475
tp2060
Rp2061
(dp2062
bg1
(g107
g526
g245
g170
g132
tp2063
Rp2064
(dp2065
bg1
(g232
g120
g368
g235
g132
g238
tp2066
Rp2067
(dp2068
bg1
(g1369
g154
g120
g94
g29
g235
g132
tp2069
Rp2070
(dp2071
bg1
(g737
g54
g154
g120
g101
g29
g129
tp2072
Rp2073
(dp2074
bg1
(g272
g62
g129
g238
g429
tp2075
Rp2076
(dp2077
bg1
(g272
g154
g279
g223
g346
tp2078
Rp2079
(dp2080
bg1
(g186
g29
g192
g315
g448
tp2081
Rp2082
(dp2083
bg1
(g411
g154
g94
g29
g192
g346
tp2084
Rp2085
(dp2086
bg1
(g90
g54
g120
g177
g110
tp2087
Rp2088
(dp2089
bg1
(g44
g368
g294
g300
tp2090
Rp2091
(dp2092
bg1
(g272
g54
g29
g223
g361
tp2093
Rp2094
(dp2095
bg1
(g150
g54
g120
g402
g29
g170
tp2096
Rp2097
(dp2098
bg1
(g116
g120
g402
g62
g129
g132
tp2099
Rp2100
(dp2101
bg1
(g205
g110
g226
tp2102
Rp2103
(dp2104
bg1
(g217
g245
g223
g195
g226
tp2105
Rp2106
(dp2107
bg1
(g553
g120
g94
g29
g223
g195
tp2108
Rp2109
(dp2110
bg1
(g291
g368
g235
g315
g226
tp2111
Rp2112
(dp2113
bg1
(g644
g245
g260
g454
g238
tp2114
Rp2115
(dp2116
bg1
(g217
g245
g223
g132
g448
tp2117
Rp2118
(dp2119
bg1
(g126
g526
g62
g235
g195
tp2120
Rp2121
(dp2122
bg1
(g150
g54
g154
g526
g29
g170
tp2123
Rp2124
(dp2125
bg1
(g383
g154
g161
g29
g235
g315
tp2126
Rp2127
(dp2128
bg1
(g44
g245
g235
g361
tp2129
Rp2130
(dp2131
bg1
(g150
g54
g120
g94
g334
g170
tp2132
Rp2133
(dp2134
bg1
(g150
g54
g120
g526
g62
g170
tp2135
Rp2136
(dp2137
bg1
(g150
g154
g94
g161
g62
g170
tp2138
Rp2139
(dp2140
bg1
(g1369
g154
g120
g101
g62
g235
g132
tp2141
Rp2142
(dp2143
bg1
(g490
g368
g192
g346
g238
tp2144
Rp2145
(dp2146
bg1
(g272
g245
g129
g238
g226
tp2147
Rp2148
(dp2149
bg1
(g84
g154
g29
g324
g300
tp2150
Rp2151
(dp2152
bg1
(g107
g161
g334
g170
g132
tp2153
Rp2154
(dp2155
bg1
(g90
g54
g161
g279
g110
tp2156
Rp2157
(dp2158
bg1
(g107
g101
g368
g170
g238
tp2159
Rp2160
(dp2161
bg1
(g150
g54
g154
g120
g205
g170
tp2162
Rp2163
(dp2164
bg1
(g138
g94
g279
g129
g315
tp2165
Rp2166
(dp2167
bg1
(g90
g154
g161
g334
g110
tp2168
Rp2169
(dp2170
bg1
(g107
g161
g62
g170
g226
tp2171
Rp2172
(dp2173
bg1
(g138
g154
g510
g129
g315
tp2174
Rp2175
(dp2176
bg1
(g257
g94
g62
g294
g475
tp2177
Rp2178
(dp2179
bg1
(g90
g94
g161
g245
g110
tp2180
Rp2181
(dp2182
bg1
(g254
g154
g368
g260
g266
tp2183
Rp2184
(dp2185
bg1
(g90
g120
g526
g29
g110
tp2186
Rp2187
(dp2188
bg1
(g116
g54
g120
g62
g129
g429
tp2189
Rp2190
(dp2191
bg1
(g383
g120
g161
g62
g235
g315
tp2192
Rp2193
(dp2194
bg1
(g90
g120
g161
g368
g110
tp2195
Rp2196
(dp2197
bg1
(g257
g154
g245
g294
g475
tp2198
Rp2199
(dp2200
bg1
(g44
g205
g170
g198
tp2201
Rp2202
(dp2203
bg1
(g272
g245
g129
g132
g429
tp2204
Rp2205
(dp2206
bg1
(g383
g154
g94
g368
g235
g315
tp2207
Rp2208
(dp2209
bg1
(g150
g54
g154
g94
g279
g170
tp2210
Rp2211
(dp2212
bg1
(g138
g120
g368
g129
g198
tp2213
Rp2214
(dp2215
bg1
(g107
g54
g368
g170
g429
tp2216
Rp2217
(dp2218
bg1
(g90
g120
g402
g245
g110
tp2219
Rp2220
(dp2221
bg1
(g150
g54
g154
g402
g245
g170
tp2222
Rp2223
(dp2224
bg1
(g44
g563
g245
g72
tp2225
Rp2226
(dp2227
bg1
(g107
g54
g510
g170
g238
tp2228
Rp2229
(dp2230
bg1
(g107
g54
g279
g170
g226
tp2231
Rp2232
(dp2233
bg1
(g312
g62
g223
g315
g144
tp2234
Rp2235
(dp2236
bg1
(g737
g54
g154
g120
g161
g62
g129
tp2237
Rp2238
(dp2239
bg1
(g2
(S'Num12'
p2240
tp2241
Rp2242
(dp2243
g7
g8
(g9
g10
(dp2244
g12
I01
sg13
Nsg14
I01
sg16
Nsg17
Nsg22
I01
sg20
I01
sg24
I00
stp2245
Rp2246
sbg47
tp2247
Rp2248
(dp2249
bg1
(g232
g154
g62
g235
g132
g429
tp2250
Rp2251
(dp2252
bg1
(g90
g154
g101
g279
g110
tp2253
Rp2254
(dp2255
bg1
(g107
g402
g368
g170
g132
tp2256
Rp2257
(dp2258
bg1
(g107
g120
g279
g170
g238
tp2259
Rp2260
(dp2261
bg1
(g116
g120
g101
g62
g129
g238
tp2262
Rp2263
(dp2264
bg1
(g44
g526
g334
g72
tp2265
Rp2266
(dp2267
bg1
(g150
g54
g120
g101
g368
g170
tp2268
Rp2269
(dp2270
bg1
(g116
g154
g94
g62
g129
g226
tp2271
Rp2272
(dp2273
bg1
(g90
g94
g526
g62
g110
tp2274
Rp2275
(dp2276
bg1
(g107
g161
g245
g170
g238
tp2277
Rp2278
(dp2279
bg1
(g116
g120
g94
g368
g129
g132
tp2280
Rp2281
(dp2282
bg1
(g205
g223
g454
tp2283
Rp2284
(dp2285
bg1
(g116
g154
g101
g368
g129
g132
tp2286
Rp2287
(dp2288
bg1
(g291
g62
g235
g198
g226
tp2289
Rp2290
(dp2291
bg1
(g44
g774
g170
g315
tp2292
Rp2293
(dp2294
bg1
(g291
g29
g235
g132
g144
tp2295
Rp2296
(dp2297
bg1
(g116
g54
g402
g62
g129
g238
tp2298
Rp2299
(dp2300
bg1
(g254
g101
g62
g260
g266
tp2301
Rp2302
(dp2303
bg1
(g272
g101
g245
g223
g346
tp2304
Rp2305
(dp2306
bg1
(g737
g54
g154
g94
g101
g62
g129
tp2307
Rp2308
(dp2309
bg1
(g107
g120
g29
g170
g429
tp2310
Rp2311
(dp2312
bg1
(g150
g54
g154
g436
g62
g170
tp2313
Rp2314
(dp2315
bg1
(g411
g120
g94
g62
g192
g346
tp2316
Rp2317
(dp2318
bg1
(g116
g154
g161
g245
g129
g132
tp2319
Rp2320
(dp2321
bg1
(g538
g101
g62
g223
g315
g238
tp2322
Rp2323
(dp2324
bg1
(g126
g154
g205
g235
g195
tp2325
Rp2326
(dp2327
bg1
(g44
g62
g170
g34
(g94
g141
tp2328
Rp2329
(dp2330
btp2331
Rp2332
(dp2333
bg1
(g138
g101
g334
g129
g315
tp2334
Rp2335
(dp2336
bg1
(g67
(I120
tp2337
Rp2338
(dp2339
bg154
g120
g94
g62
g223
g315
tp2340
Rp2341
(dp2342
bg1
(g1029
g154
g120
g29
g260
g454
tp2343
Rp2344
(dp2345
bg1
(g538
g154
g29
g223
g315
g226
tp2346
Rp2347
(dp2348
bg1
(g232
g94
g245
g235
g132
g238
tp2349
Rp2350
(dp2351
bg1
(g383
g94
g101
g62
g235
g315
tp2352
Rp2353
(dp2354
bg1
(g116
g54
g94
g29
g129
g226
tp2355
Rp2356
(dp2357
bg1
(g150
g54
g120
g161
g245
g170
tp2358
Rp2359
(dp2360
bg1
(g150
g154
g94
g101
g29
g170
tp2361
Rp2362
(dp2363
bg1
(g553
g154
g161
g62
g223
g195
tp2364
Rp2365
(dp2366
bg1
(g67
(I-72
tp2367
Rp2368
(dp2369
bg154
g120
g62
g294
g266
tp2370
Rp2371
(dp2372
bg1
(g553
g120
g101
g62
g223
g195
tp2373
Rp2374
(dp2375
bg1
(g90
g120
g94
g279
g110
tp2376
Rp2377
(dp2378
bg1
(g116
g54
g94
g368
g129
g238
tp2379
Rp2380
(dp2381
bg1
(g107
g154
g245
g170
g429
tp2382
Rp2383
(dp2384
bg1
(g116
g54
g161
g29
g129
g238
tp2385
Rp2386
(dp2387
bg1
(g116
g54
g101
g62
g129
g226
tp2388
Rp2389
(dp2390
bg1
(g67
(I-84
tp2391
Rp2392
(dp2393
bg62
g294
g454
g198
tp2394
Rp2395
(dp2396
bg1
(g116
g120
g101
g245
g129
g132
tp2397
Rp2398
(dp2399
bg1
(g107
g94
g334
g170
g238
tp2400
Rp2401
(dp2402
bg1
(g107
g436
g29
g170
g132
tp2403
Rp2404
(dp2405
bg1
(g254
g120
g245
g260
g266
tp2406
Rp2407
(dp2408
bg1
(g150
g154
g120
g101
g245
g170
tp2409
Rp2410
(dp2411
bg1
(g150
g154
g120
g402
g62
g170
tp2412
Rp2413
(dp2414
bg1
(g334
g260
g475
tp2415
Rp2416
(dp2417
bg1
(g232
g154
g245
g235
g132
g226
tp2418
Rp2419
(dp2420
bg1
(g737
g54
g154
g120
g94
g245
g129
tp2421
Rp2422
(dp2423
bg1
(g116
g154
g120
g279
g129
g132
tp2424
Rp2425
(dp2426
bg1
(g90
g154
g120
g510
g110
tp2427
Rp2428
(dp2429
bg1
(g383
g120
g101
g29
g235
g315
tp2430
Rp2431
(dp2432
bg1
(g107
g154
g177
g170
g132
tp2433
Rp2434
(dp2435
bg1
(g383
g154
g101
g245
g235
g315
tp2436
Rp2437
(dp2438
bg1
(g126
g120
g29
g235
g448
tp2439
Rp2440
(dp2441
bg1
(g116
g120
g94
g29
g129
g238
tp2442
Rp2443
(dp2444
bg1
(g383
g154
g402
g62
g235
g315
tp2445
Rp2446
(dp2447
bg1
(g383
g54
g154
g62
g235
g144
tp2448
Rp2449
(dp2450
bg1
(g116
g154
g526
g62
g129
g132
tp2451
Rp2452
(dp2453
bg1
(g291
g334
g235
g132
g198
tp2454
Rp2455
(dp2456
bg1
(g1537
g94
g62
g192
g195
g238
tp2457
Rp2458
(dp2459
bg1
(g150
g54
g101
g161
g62
g170
tp2460
Rp2461
(dp2462
bg1
(g84
g120
g62
g324
g300
tp2463
Rp2464
(dp2465
bg1
(g383
g154
g120
g334
g235
g315
tp2466
Rp2467
(dp2468
bg1
(g44
g29
g1198
g1201
tp2469
Rp2470
(dp2471
bg1
(g1029
g29
g260
g346
g198
tp2472
Rp2473
(dp2474
bg1
(g232
g94
g62
g235
g132
g226
tp2475
Rp2476
(dp2477
bg1
(g138
g101
g29
g129
g198
tp2478
Rp2479
(dp2480
bg1
(g107
g563
g62
g170
g132
tp2481
Rp2482
(dp2483
bg1
(g44
g54
g1562
g72
tp2484
Rp2485
(dp2486
bg1
(g116
g94
g101
g29
g129
g132
tp2487
Rp2488
(dp2489
bg1
(g126
g161
g245
g235
g195
tp2490
Rp2491
(dp2492
bg1
(g383
g54
g101
g62
g235
g198
tp2493
Rp2494
(dp2495
bg1
(g126
g120
g279
g235
g195
tp2496
Rp2497
(dp2498
bg1
(g116
g154
g94
g334
g129
g132
tp2499
Rp2500
(dp2501
bg1
(g490
g62
g192
g132
g361
tp2502
Rp2503
(dp2504
bg1
(g553
g154
g94
g245
g223
g195
tp2505
Rp2506
(dp2507
bg1
(g90
g120
g101
g334
g110
tp2508
Rp2509
(dp2510
bg1
(g220
g101
g29
g192
g454
tp2511
Rp2512
(dp2513
bg1
(g138
g94
g245
g129
g198
tp2514
Rp2515
(dp2516
bg1
(g90
g154
g402
g368
g110
tp2517
Rp2518
(dp2519
bg1
(g90
g94
g101
g368
g110
tp2520
Rp2521
(dp2522
bg1
(g138
g54
g245
g129
g144
tp2523
Rp2524
(dp2525
bg1
(g116
g94
g161
g62
g129
g132
tp2526
Rp2527
(dp2528
bg1
(g538
g94
g62
g223
g132
g198
tp2529
Rp2530
(dp2531
bg1
(g126
g94
g62
g235
g448
tp2532
Rp2533
(dp2534
bg1
(g44
g402
g279
g72
tp2535
Rp2536
(dp2537
bg1
(g90
g54
g526
g368
g110
tp2538
Rp2539
(dp2540
bg1
(g321
g154
g62
g1198
g327
tp2541
Rp2542
(dp2543
bg1
(g291
g279
g235
g315
g238
tp2544
Rp2545
(dp2546
bg1
(g644
g62
g260
g454
g226
tp2547
Rp2548
(dp2549
bg1
(g44
g2
(S'Den12'
p2550
tp2551
Rp2552
(dp2553
g7
g8
(g9
g10
(dp2554
g12
I01
sg13
Nsg14
I01
sg16
Nsg17
Nsg22
I01
sg20
I01
sg57
Nsg24
I00
stp2555
Rp2556
sbg62
g72
tp2557
Rp2558
(dp2559
bg1
(g90
g101
g161
g29
g110
tp2560
Rp2561
(dp2562
bg1
(g220
g154
g334
g192
g454
tp2563
Rp2564
(dp2565
bg1
(g177
g129
g195
tp2566
Rp2567
(dp2568
bg1
(g90
g54
g94
g510
g110
tp2569
Rp2570
(dp2571
bg1
(g90
g154
g436
g29
g110
tp2572
Rp2573
(dp2574
bg1
(g44
g368
g170
g144
tp2575
Rp2576
(dp2577
bg1
(g232
g101
g29
g235
g132
g238
tp2578
Rp2579
(dp2580
bg1
(g150
g120
g94
g101
g62
g170
tp2581
Rp2582
(dp2583
bg1
(g150
g154
g120
g94
g368
g170
tp2584
Rp2585
(dp2586
bg1
(g67
(I168
tp2587
Rp2588
(dp2589
bg120
g62
g260
g346
g238
tp2590
Rp2591
(dp2592
bg1
(g334
g129
g448
tp2593
Rp2594
(dp2595
bg1
(g272
g161
g29
g223
g346
tp2596
Rp2597
(dp2598
bg1
(g150
g54
g94
g402
g62
g170
tp2599
Rp2600
(dp2601
bg1
(g138
g161
g62
g129
g198
tp2602
Rp2603
(dp2604
bg1
(g107
g94
g205
g170
g132
tp2605
Rp2606
(dp2607
bg1
(g150
g54
g94
g101
g245
g170
tp2608
Rp2609
(dp2610
bg1
(g1029
g154
g94
g62
g260
g454
tp2611
Rp2612
(dp2613
bg1
(g177
g110
g238
tp2614
Rp2615
(dp2616
bg1
(g334
g110
g429
tp2617
Rp2618
(dp2619
bg1
(g490
g29
g192
g346
g226
tp2620
Rp2621
(dp2622
bg1
(g62
g110
g34
(g161
g90
tp2623
Rp2624
(dp2625
btp2626
Rp2627
(dp2628
bg1
(g1216
g29
g294
g266
g238
tp2629
Rp2630
(dp2631
bg1
(g538
g120
g29
g223
g132
g198
tp2632
Rp2633
(dp2634
bg1
(g138
g161
g368
g129
g315
tp2635
Rp2636
(dp2637
bg1
(g220
g161
g62
g192
g454
tp2638
Rp2639
(dp2640
bg1
(g44
g120
g774
g72
tp2641
Rp2642
(dp2643
bg1
(g44
g510
g235
g346
tp2644
Rp2645
(dp2646
bg1
(g553
g154
g120
g368
g223
g195
tp2647
Rp2648
(dp2649
bg1
(g497
g110
g132
tp2650
Rp2651
(dp2652
bg1
(g116
g154
g402
g29
g129
g132
tp2653
Rp2654
(dp2655
bg1
(g107
g154
g334
g170
g226
tp2656
Rp2657
(dp2658
bg1
(g272
g62
g129
g132
g466
tp2659
Rp2660
(dp2661
bg1
(g126
g402
g29
g235
g195
tp2662
Rp2663
(dp2664
bg1
(g383
g120
g94
g245
g235
g315
tp2665
Rp2666
(dp2667
bg1
(g383
g54
g94
g29
g235
g198
tp2668
Rp2669
(dp2670
bg1
(g44
g436
g368
g72
tp2671
Rp2672
(dp2673
bg1
(g272
g334
g129
g132
g226
tp2674
Rp2675
(dp2676
bg1
(g44
g94
g177
g72
tp2677
Rp2678
(dp2679
bg1
(g1369
g54
g120
g94
g62
g235
g238
tp2680
Rp2681
(dp2682
bg1
(g107
g101
g29
g170
g226
tp2683
Rp2684
(dp2685
bg1
(g44
g279
g192
g266
tp2686
Rp2687
(dp2688
bg1
(g116
g54
g101
g245
g129
g238
tp2689
Rp2690
(dp2691
bg1
(g90
g54
g1138
g62
g110
tp2692
Rp2693
(dp2694
bg1
(g272
g205
g129
g132
g238
tp2695
Rp2696
(dp2697
bg1
(g383
g54
g120
g245
g235
g198
tp2698
Rp2699
(dp2700
bg1
(g44
g154
g497
g72
tp2701
Rp2702
(dp2703
bg1
(g90
g154
g526
g245
g110
tp2704
Rp2705
(dp2706
bg1
(g150
g54
g154
g101
g334
g170
tp2707
Rp2708
(dp2709
bg1
(g90
g120
g436
g62
g110
tp2710
Rp2711
(dp2712
bg1
(g67
(I45
tp2713
Rp2714
(dp2715
bg62
g324
g475
g238
tp2716
Rp2717
(dp2718
bg1
(g138
g120
g205
g129
g315
tp2719
Rp2720
(dp2721
bg1
(g538
g94
g29
g223
g315
g238
tp2722
Rp2723
(dp2724
bg1
(g126
g94
g334
g235
g195
tp2725
Rp2726
(dp2727
bg1
(g107
g120
g510
g170
g132
tp2728
Rp2729
(dp2730
bg1
(g90
g563
g154
g62
g110
tp2731
Rp2732
(dp2733
bg1
(g90
g54
g402
g334
g110
tp2734
Rp2735
(dp2736
bg1
(g44
g101
g510
g72
tp2737
Rp2738
(dp2739
bg1
(g116
g54
g154
g368
g129
g226
tp2740
Rp2741
(dp2742
bg1
(g291
g29
g235
g315
g429
tp2743
Rp2744
(dp2745
bg1
(g312
g368
g223
g315
g198
tp2746
Rp2747
(dp2748
bg1
(g1537
g154
g62
g192
g195
g226
tp2749
Rp2750
(dp2751
bg1
(g220
g120
g368
g192
g454
tp2752
Rp2753
(dp2754
bg1
(g67
(I90
tp2755
Rp2756
(dp2757
bg62
g223
g132
g238
g226
tp2758
Rp2759
(dp2760
bg1
(g90
g54
g101
g205
g110
tp2761
Rp2762
(dp2763
bg1
(g90
g54
g154
g774
g110
tp2764
Rp2765
(dp2766
bg1
(g138
g54
g279
g129
g198
tp2767
Rp2768
(dp2769
bg1
(g138
g436
g62
g129
g315
tp2770
Rp2771
(dp2772
bg1
(g217
g62
g223
g195
g429
tp2773
Rp2774
(dp2775
bg1
(g126
g54
g368
g235
g448
tp2776
Rp2777
(dp2778
bg1
(g90
g154
g94
g205
g110
tp2779
Rp2780
(dp2781
bg1
(g62
g223
g34
(g154
g272
tp2782
Rp2783
(dp2784
btp2785
Rp2786
(dp2787
bg1
(g411
g154
g120
g245
g192
g346
tp2788
Rp2789
(dp2790
bg1
(g538
g120
g245
g223
g315
g238
tp2791
Rp2792
(dp2793
bg1
(g90
g54
g563
g29
g110
tp2794
Rp2795
(dp2796
bg1
(g107
g402
g29
g170
g238
tp2797
Rp2798
(dp2799
bg1
(g90
g94
g402
g29
g110
tp2800
Rp2801
(dp2802
bg1
(g67
(I-140
tp2803
Rp2804
(dp2805
bg120
g62
g192
g315
g198
tp2806
Rp2807
(dp2808
bg1
(g107
g101
g279
g170
g132
tp2809
Rp2810
(dp2811
bg1
(g107
g154
g62
g170
g466
tp2812
Rp2813
(dp2814
bg1
(g90
g101
g402
g62
g110
tp2815
Rp2816
(dp2817
bg1
(g62
g129
g34
(g120
g138
tp2818
Rp2819
(dp2820
btp2821
Rp2822
(dp2823
bg1
(g254
g94
g29
g260
g266
tp2824
Rp2825
(dp2826
bg1
(g217
g334
g223
g195
g238
tp2827
Rp2828
(dp2829
bg1
(g67
(I70
tp2830
Rp2831
(dp2832
bg62
g260
g195
g448
tp2833
Rp2834
(dp2835
bg1
(g1537
g120
g29
g192
g195
g238
tp2836
Rp2837
(dp2838
btp2839
Rp2840
(dp2841
btp2842
Rp2843
(dp2844
bg1
(g34
(g5
g297
tp2845
Rp2846
(dp2847
bg0
(g1
(g138
g120
g62
g129
g198
tp2848
Rp2849
(dp2850
bg1
(g138
g120
g368
g129
g315
tp2851
Rp2852
(dp2853
bg1
(g90
g154
g101
g245
g110
tp2854
Rp2855
(dp2856
bg1
(g150
g54
g120
g94
g29
g170
tp2857
Rp2858
(dp2859
bg1
(g107
g402
g62
g170
g132
tp2860
Rp2861
(dp2862
bg1
(g44
g402
g245
g72
tp2863
Rp2864
(dp2865
bg1
(g138
g161
g62
g129
g315
tp2866
Rp2867
(dp2868
bg1
(g279
g110
g238
tp2869
Rp2870
(dp2871
bg1
(g44
g368
g170
g198
tp2872
Rp2873
(dp2874
bg1
(g217
g29
g223
g195
g238
tp2875
Rp2876
(dp2877
bg1
(g107
g154
g279
g170
g132
tp2878
Rp2879
(dp2880
bg1
(g44
g120
g205
g72
tp2881
Rp2882
(dp2883
bg1
(g44
g101
g334
g72
tp2884
Rp2885
(dp2886
bg1
(g116
g154
g120
g245
g129
g132
tp2887
Rp2888
(dp2889
bg1
(g150
g54
g154
g161
g62
g170
tp2890
Rp2891
(dp2892
bg1
(g90
g154
g120
g334
g110
tp2893
Rp2894
(dp2895
bg1
(g116
g154
g94
g29
g129
g132
tp2896
Rp2897
(dp2898
bg1
(g107
g54
g62
g170
g429
tp2899
Rp2900
(dp2901
bg1
(g107
g94
g368
g170
g132
tp2902
Rp2903
(dp2904
bg1
(g107
g101
g245
g170
g132
tp2905
Rp2906
(dp2907
bg1
(g90
g54
g402
g29
g110
tp2908
Rp2909
(dp2910
bg1
(g138
g94
g245
g129
g315
tp2911
Rp2912
(dp2913
bg1
(g44
g161
g368
g72
tp2914
Rp2915
(dp2916
bg1
(g150
g154
g120
g94
g62
g170
tp2917
Rp2918
(dp2919
bg1
(g138
g101
g29
g129
g315
tp2920
Rp2921
(dp2922
bg1
(g383
g154
g120
g29
g235
g315
tp2923
Rp2924
(dp2925
bg1
(g44
g62
g294
g300
tp2926
Rp2927
(dp2928
bg1
(g279
g129
g195
tp2929
Rp2930
(dp2931
bg1
(g312
g62
g223
g315
g198
tp2932
Rp2933
(dp2934
bg1
(g116
g54
g120
g29
g129
g238
tp2935
Rp2936
(dp2937
bg1
(g29
g129
g448
tp2938
Rp2939
(dp2940
bg1
(g90
g54
g101
g368
g110
tp2941
Rp2942
(dp2943
bg1
(g44
g205
g170
g315
tp2944
Rp2945
(dp2946
bg1
(g90
g120
g161
g62
g110
tp2947
Rp2948
(dp2949
bg1
(g272
g94
g62
g223
g346
tp2950
Rp2951
(dp2952
bg1
(g126
g101
g62
g235
g195
tp2953
Rp2954
(dp2955
bg1
(g383
g154
g94
g62
g235
g315
tp2956
Rp2957
(dp2958
bg1
(g138
g154
g334
g129
g315
tp2959
Rp2960
(dp2961
bg1
(g90
g154
g161
g29
g110
tp2962
Rp2963
(dp2964
bg1
(g90
g54
g161
g245
g110
tp2965
Rp2966
(dp2967
bg1
(g220
g154
g29
g192
g454
tp2968
Rp2969
(dp2970
bg1
(g510
g110
g132
tp2971
Rp2972
(dp2973
bg1
(g107
g154
g29
g170
g226
tp2974
Rp2975
(dp2976
bg1
(g29
g260
g475
tp2977
Rp2978
(dp2979
bg1
(g368
g223
g454
tp2980
Rp2981
(dp2982
bg1
(g90
g154
g94
g368
g110
tp2983
Rp2984
(dp2985
bg1
(g272
g154
g245
g223
g346
tp2986
Rp2987
(dp2988
bg1
(g44
g436
g62
g72
tp2989
Rp2990
(dp2991
bg1
(g90
g54
g94
g334
g110
tp2992
Rp2993
(dp2994
bg1
(g553
g154
g120
g62
g223
g195
tp2995
Rp2996
(dp2997
bg1
(g90
g54
g154
g205
g110
tp2998
Rp2999
(dp3000
bg1
(g90
g54
g120
g279
g110
tp3001
Rp3002
(dp3003
bg1
(g107
g120
g334
g170
g132
tp3004
Rp3005
(dp3006
bg1
(g107
g94
g29
g170
g238
tp3007
Rp3008
(dp3009
bg1
(g368
g110
g226
tp3010
Rp3011
(dp3012
bg1
(g44
g94
g279
g72
tp3013
Rp3014
(dp3015
bg1
(g291
g29
g235
g132
g198
tp3016
Rp3017
(dp3018
bg1
(g90
g120
g101
g29
g110
tp3019
Rp3020
(dp3021
bg1
(g107
g54
g245
g170
g226
tp3022
Rp3023
(dp3024
bg1
(g272
g368
g129
g132
g238
tp3025
Rp3026
(dp3027
bg1
(g150
g54
g154
g101
g29
g170
tp3028
Rp3029
(dp3030
bg1
(g90
g154
g402
g62
g110
tp3031
Rp3032
(dp3033
bg1
(g232
g120
g62
g235
g132
g238
tp3034
Rp3035
(dp3036
bg1
(g44
g245
g192
g266
tp3037
Rp3038
(dp3039
bg1
(g138
g54
g245
g129
g198
tp3040
Rp3041
(dp3042
bg1
(g126
g120
g245
g235
g195
tp3043
Rp3044
(dp3045
bg1
(g126
g94
g29
g235
g195
tp3046
Rp3047
(dp3048
bg1
(g116
g154
g101
g62
g129
g132
tp3049
Rp3050
(dp3051
bg1
(g90
g94
g101
g62
g110
tp3052
Rp3053
(dp3054
bg1
(g272
g29
g129
g132
g226
tp3055
Rp3056
(dp3057
bg1
(g44
g334
g235
g346
tp3058
Rp3059
(dp3060
bg1
(g44
g54
g177
g72
tp3061
Rp3062
(dp3063
bg1
(g90
g54
g526
g62
g110
tp3064
Rp3065
(dp3066
bg1
(g126
g154
g368
g235
g195
tp3067
Rp3068
(dp3069
bg1
(g29
g110
g429
tp3070
Rp3071
(dp3072
bg1
(g490
g62
g192
g346
g238
tp3073
Rp3074
(dp3075
bg1
(g116
g120
g94
g62
g129
g132
tp3076
Rp3077
(dp3078
bg1
(g90
g120
g94
g245
g110
tp3079
Rp3080
(dp3081
bg1
(g150
g54
g154
g94
g245
g170
tp3082
Rp3083
(dp3084
bg1
(g107
g120
g245
g170
g238
tp3085
Rp3086
(dp3087
bg1
(g272
g120
g29
g223
g346
tp3088
Rp3089
(dp3090
bg1
(g254
g154
g62
g260
g266
tp3091
Rp3092
(dp3093
bg1
(g44
g62
g170
g144
tp3094
Rp3095
(dp3096
bg1
(g44
g154
g510
g72
tp3097
Rp3098
(dp3099
bg1
(g291
g62
g235
g315
g226
tp3100
Rp3101
(dp3102
bg1
(g774
g47
tp3103
Rp3104
(dp3105
bg1
(g150
g54
g120
g101
g62
g170
tp3106
Rp3107
(dp3108
bg1
(g107
g161
g29
g170
g132
tp3109
Rp3110
(dp3111
bg1
(g107
g54
g334
g170
g238
tp3112
Rp3113
(dp3114
bg1
(g116
g54
g94
g62
g129
g238
tp3115
Rp3116
(dp3117
bg1
(g107
g101
g62
g170
g238
tp3118
Rp3119
(dp3120
bg1
(g116
g54
g154
g62
g129
g226
tp3121
Rp3122
(dp3123
bg1
(g150
g54
g154
g120
g368
g170
tp3124
Rp3125
(dp3126
bg1
(g126
g54
g62
g235
g448
tp3127
Rp3128
(dp3129
bg1
(g44
g526
g29
g72
tp3130
Rp3131
(dp3132
bg1
(g220
g120
g62
g192
g454
tp3133
Rp3134
(dp3135
bg1
(g291
g245
g235
g315
g238
tp3136
Rp3137
(dp3138
btp3139
Rp3140
(dp3141
btp3142
Rp3143
(dp3144
bg1
(g62
g47
tp3145
Rp3146
(dp3147
bg1
(g34
(g5
g272
tp3148
Rp3149
(dp3150
bg0
(g1
(g138
g154
g29
g129
g315
tp3151
Rp3152
(dp3153
bg1
(g44
g94
g245
g72
tp3154
Rp3155
(dp3156
bg1
(g107
g54
g29
g170
g238
tp3157
Rp3158
(dp3159
bg1
(g107
g94
g62
g170
g132
tp3160
Rp3161
(dp3162
bg1
(g150
g54
g154
g120
g62
g170
tp3163
Rp3164
(dp3165
bg1
(g44
g101
g29
g72
tp3166
Rp3167
(dp3168
bg1
(g107
g154
g245
g170
g132
tp3169
Rp3170
(dp3171
bg1
(g44
g161
g62
g72
tp3172
Rp3173
(dp3174
bg1
(g245
g110
g238
tp3175
Rp3176
(dp3177
bg1
(g44
g29
g235
g346
tp3178
Rp3179
(dp3180
bg1
(g334
g110
g132
tp3181
Rp3182
(dp3183
bg1
(g62
g223
g454
tp3184
Rp3185
(dp3186
bg1
(g90
g154
g94
g62
g110
tp3187
Rp3188
(dp3189
bg1
(g44
g154
g334
g72
tp3190
Rp3191
(dp3192
bg1
(g126
g154
g62
g235
g195
tp3193
Rp3194
(dp3195
bg1
(g107
g120
g29
g170
g132
tp3196
Rp3197
(dp3198
bg1
(g62
g110
g226
tp3199
Rp3200
(dp3201
bg1
(g245
g129
g195
tp3202
Rp3203
(dp3204
bg1
(g90
g54
g101
g62
g110
tp3205
Rp3206
(dp3207
bg1
(g44
g62
g170
g198
tp3208
Rp3209
(dp3210
bg1
(g90
g54
g154
g368
g110
tp3211
Rp3212
(dp3213
bg1
(g205
g47
tp3214
Rp3215
(dp3216
bg1
(g44
g120
g368
g72
tp3217
Rp3218
(dp3219
bg1
(g272
g62
g129
g132
g238
tp3220
Rp3221
(dp3222
bg1
(g90
g154
g120
g29
g110
tp3223
Rp3224
(dp3225
bg1
(g90
g54
g120
g245
g110
tp3226
Rp3227
(dp3228
bg1
(g90
g54
g94
g29
g110
tp3229
Rp3230
(dp3231
bg1
(g44
g368
g170
g315
tp3232
Rp3233
(dp3234
bg1
(g138
g120
g62
g129
g315
tp3235
Rp3236
(dp3237
bg1
(g44
g54
g279
g72
tp3238
Rp3239
(dp3240
btp3241
Rp3242
(dp3243
btp3244
Rp3245
(dp3246
btp3247
Rp3248
(dp3249
b.