csympy.core.add
Add
p0
(csympy.core.mul
Mul
p1
(csympy.core.symbol
Symbol
p2
(S'PolynomialVariable'
p3
tp4
Rp5
(dp6
S'_assumptions'
p7
ccopy_reg
_reconstructor
p8
(csympy.core.assumptions
StdFactKB
p9
c__builtin__
dict
p10
(dp11
S'real'
p12
I01
sS'polar'
p13
NsS'commutative'
p14
I01
sS'nonpositive'
p15
NsS'positive'
p16
NsS'negative'
p17
NsS'nonnegative'
p18
NsS'zero'
p19
NsS'complex'
p20
I01
sS'rational'
p21
NsS'hermitian'
p22
I01
sS'nonzero'
p23
NsS'imaginary'
p24
I00
stp25
Rp26
sbg0
(g1
(g2
(S'Num1'
p27
tp28
Rp29
(dp30
g7
g8
(g9
g10
(dp31
g12
I01
sg13
Nsg14
I01
sg16
Nsg17
Nsg22
I01
sg20
I01
sg24
I00
stp32
Rp33
sbcsympy.core.power
Pow
p34
(g2
(S'Den0'
p35
tp36
Rp37
(dp38
g7
g8
(g9
g10
(dp39
g12
I01
sg13
Nsg14
I01
sS'unbounded'
p40
Nsg17
Nsg22
I01
sg20
I01
sg16
Nsg24
I00
stp41
Rp42
sbcsympy.core.numbers
NegativeOne
p43
(tRp44
(dp45
btp46
Rp47
(dp48
btp49
Rp50
(dp51
bg1
(g44
g2
(S'Den1'
p52
tp53
Rp54
(dp55
g7
g8
(g9
g10
(dp56
g12
I01
sg13
Nsg14
I01
sg16
Nsg17
Nsg22
I01
sg20
I01
sS'bounded'
p57
Nsg24
I00
stp58
Rp59
sbg2
(S'Num0'
p60
tp61
Rp62
(dp63
g7
g8
(g9
g10
(dp64
g12
I01
sg13
Nsg14
I01
sg16
Nsg17
Nsg22
I01
sg20
I01
sg24
I00
stp65
Rp66
sbg34
(g37
csympy.core.numbers
Integer
p67
(I-2
tp68
Rp69
(dp70
btp71
Rp72
(dp73
btp74
Rp75
(dp76
btp77
Rp78
(dp79
btp80
Rp81
(dp82
bcsympy.series.order
Order
p83
(g34
(g5
g67
(I5
tp84
Rp85
(dp86
btp87
Rp88
(dp89
bg5
tp90
Rp91
(dp92
bg1
(g34
(g5
g67
(I3
tp93
Rp94
(dp95
btp96
Rp97
(dp98
bg0
(g1
(g44
g2
(S'Den2'
p99
tp100
Rp101
(dp102
g7
g8
(g9
g10
(dp103
g12
I01
sg13
Nsg14
I01
sg16
Nsg17
Nsg22
I01
sg20
I01
sg57
Nsg24
I00
stp104
Rp105
sbg29
g72
tp106
Rp107
(dp108
bg1
(g44
g54
g2
(S'Num2'
p109
tp110
Rp111
(dp112
g7
g8
(g9
g10
(dp113
g12
I01
sg13
Nsg14
I01
sg16
Nsg17
Nsg22
I01
sg20
I01
sg24
I00
stp114
Rp115
sbg72
tp116
Rp117
(dp118
bg1
(g67
(I2
tp119
Rp120
(dp121
bg54
g101
g62
g34
(g37
g67
(I-3
tp122
Rp123
(dp124
btp125
Rp126
(dp127
btp128
Rp129
(dp130
bg1
(g44
g2
(S'Den3'
p131
tp132
Rp133
(dp134
g7
g8
(g9
g10
(dp135
g12
I01
sg13
Nsg14
I01
sg16
Nsg17
Nsg22
I01
sg20
I01
sg57
Nsg24
I00
stp136
Rp137
sbg62
g72
tp138
Rp139
(dp140
bg1
(g29
g126
g34
(g54
g120
tp141
Rp142
(dp143
btp144
Rp145
(dp146
bg1
(g44
g62
g34
(g37
g67
(I-4
tp147
Rp148
(dp149
btp150
Rp151
(dp152
bg34
(g54
g94
tp153
Rp154
(dp155
btp156
Rp157
(dp158
bg1
(g2
(S'Num3'
p159
tp160
Rp161
(dp162
g7
g8
(g9
g10
(dp163
g12
I01
sg13
Nsg14
I01
sg16
Nsg17
Nsg22
I01
sg20
I01
sg24
I00
stp164
Rp165
sbg47
tp166
Rp167
(dp168
btp169
Rp170
(dp171
btp172
Rp173
(dp174
bg1
(g34
(g5
g120
tp175
Rp176
(dp177
bg0
(g1
(g111
g47
tp178
Rp179
(dp180
bg1
(g62
g126
g142
tp181
Rp182
(dp183
bg1
(g44
g101
g62
g72
tp184
Rp185
(dp186
bg1
(g44
g54
g29
g72
tp187
Rp188
(dp189
btp190
Rp191
(dp192
btp193
Rp194
(dp195
bg1
(g34
(g5
g67
(I4
tp196
Rp197
(dp198
btp199
Rp200
(dp201
bg0
(g1
(g44
g2
(S'Den4'
p202
tp203
Rp204
(dp205
g7
g8
(g9
g10
(dp206
g12
I01
sg13
Nsg14
I01
sg16
Nsg17
Nsg22
I01
sg20
I01
sg57
Nsg24
I00
stp207
Rp208
sbg62
g72
tp209
Rp210
(dp211
bg1
(g44
g54
g161
g72
tp212
Rp213
(dp214
bg1
(g62
g34
(g37
g67
(I-5
tp215
Rp216
(dp217
btp218
Rp219
(dp220
bg34
(g54
g197
tp221
Rp222
(dp223
btp224
Rp225
(dp226
bg1
(g123
g101
g62
g151
g142
tp227
Rp228
(dp229
bg1
(g120
g54
g101
g29
g126
tp230
Rp231
(dp232
bg1
(g44
g133
g29
g72
tp233
Rp234
(dp235
bg1
(g2
(S'Num4'
p236
tp237
Rp238
(dp239
g7
g8
(g9
g10
(dp240
g12
I01
sg13
Nsg14
I01
sg16
Nsg17
Nsg22
I01
sg20
I01
sg24
I00
stp241
Rp242
sbg47
tp243
Rp244
(dp245
bg1
(g44
g101
g111
g72
tp246
Rp247
(dp248
bg1
(g44
g29
g151
g154
tp249
Rp250
(dp251
bg1
(g62
g126
g34
(g101
g120
tp252
Rp253
(dp254
btp255
Rp256
(dp257
bg1
(g111
g126
g142
tp258
Rp259
(dp260
bg1
(g120
g54
g133
g62
g126
tp261
Rp262
(dp263
btp264
Rp265
(dp266
btp267
Rp268
(dp269
bg1
(g62
g47
tp270
Rp271
(dp272
btp273
Rp274
(dp275
b.